ccopy_reg
_reconstructor
p0
(cmatplotlib.figure
Figure
p1
c__builtin__
object
p2
Ntp3
Rp4
(dp5
S'_label'
p6
V
p7
sS'_constrained_layout_pads'
p8
(dp9
Vw_pad
p10
F0.04167
sVwspace
p11
F0.02
sVh_pad
p12
F0.04167
sVhspace
p13
F0.02
ssS'figure'
p14
NsS'_visible'
p15
I01
sS'stale_callback'
p16
NsS'_rasterized'
p17
NsS'texts'
p18
(lp19
sS'_hold'
p20
I01
sS'artists'
p21
(lp22
sS'_path_effects'
p23
(lp24
sS'frameon'
p25
I01
sS'_clipon'
p26
I01
sV__mpl_version__
p27
S'2.2.4'
p28
sS'_clippath'
p29
NsS'_sketch'
p30
NsS'_contains'
p31
NsS'_tight_parameters'
p32
(dp33
sS'_oid'
p34
I0
sS'_mouseover'
p35
I00
sS'_animated'
p36
I00
sS'_propobservers'
p37
(dp38
sS'eventson'
p39
I00
sS'_picker'
p40
NsS'_remove_method'
p41
NsS'_agg_filter'
p42
NsS'clipbox'
p43
NsV_restore_to_pylab
p44
I01
sS'images'
p45
(lp46
sS'bbox_inches'
p47
g0
(cmatplotlib.transforms
Bbox
p48
g2
Ntp49
Rp50
(dp51
S'_invalid'
p52
I0
sS'_minpos'
p53
cnumpy.core.multiarray
_reconstruct
p54
(cnumpy
ndarray
p55
(I0
tp56
S'b'
p57
tp58
Rp59
(I1
(I2
tp60
cnumpy
dtype
p61
(S'f8'
p62
I0
I1
tp63
Rp64
(I3
S'<'
p65
NNNI-1
I-1
I0
tp66
bI00
S'\x00\x00\x00\x00\x00\x00\xf0\x7f\x00\x00\x00\x00\x00\x00\xf0\x7f'
p67
tp68
bsS'_parents'
p69
(dp70
I140536282841360
g0
(cmatplotlib.transforms
TransformedBbox
p71
g2
Ntp72
Rp73
(dp74
g52
I0
sS'_bbox'
p75
g50
sS'_transform'
p76
g0
(cmatplotlib.transforms
Affine2D
p77
g2
Ntp78
Rp79
(dp80
g52
I0
sS'_inverted'
p81
NsS'_mtx'
p82
g54
(g55
(I0
tp83
g57
tp84
Rp85
(I1
(I3
I3
tp86
g64
I00
S'\x00\x00\x00\x00\x00\x00Y@\x00\x00\x00\x00\x00\x00\x00\x00\x00\x00\x00\x00\x00\x00\x00\x00\x00\x00\x00\x00\x00\x00\x00\x00\x00\x00\x00\x00\x00\x00Y@\x00\x00\x00\x00\x00\x00\x00\x00\x00\x00\x00\x00\x00\x00\x00\x00\x00\x00\x00\x00\x00\x00\x00\x00\x00\x00\x00\x00\x00\x00\xf0?'
p87
tp88
bsS'_shorthand_name'
p89
g7
sg69
(dp90
I140536283069328
g0
(cmatplotlib.transforms
ScaledTranslation
p91
g2
Ntp92
Rp93
(dp94
g52
I1
sg82
NsS'_scale_trans'
p95
g79
sg81
NsS'_t'
p96
(F0.0
F0.08333333333333333
tp97
sg89
g7
sg69
(dp98
I140536283069456
g0
(cmatplotlib.transforms
CompositeGenericTransform
p99
g2
Ntp100
Rp101
(dp102
g52
I1
sS'input_dims'
p103
I2
sS'_a'
p104
g0
(cmatplotlib.transforms
BboxTransformTo
p105
g2
Ntp106
Rp107
(dp108
g52
I1
sg82
Nsg81
NsS'_boxout'
p109
g0
(g71
g2
Ntp110
Rp111
(dp112
g52
I1
sg75
g0
(g48
g2
Ntp113
Rp114
(dp115
g52
I0
sg53
g54
(g55
(I0
tp116
g57
tp117
Rp118
(I1
(I2
tp119
g64
I00
S'\x00\x00\x00\x00\x00\x00\xf0\x7f\x00\x00\x00\x00\x00\x00\xf0\x7f'
p120
tp121
bsg69
(dp122
I140536282981136
g111
ssS'_points_orig'
p123
g54
(g55
(I0
tp124
g57
tp125
Rp126
(I1
(I2
I2
tp127
g64
I00
S'\x9a\x99\x99\x99\x99\x99\xb9?\x98\x99\x99\x99\x99\x99\xb9?ffffff\xee?ffffff\xee?'
p128
tp129
bsS'_points'
p130
g54
(g55
(I0
tp131
g57
tp132
Rp133
(I1
(I2
I2
tp134
g64
I00
S'\x9a\x99\x99\x99\x99\x99\xb9?\x98\x99\x99\x99\x99\x99\xb9?ffffff\xee?ffffff\xee?'
p135
tp136
bsS'_ignore'
p137
I01
sg89
g7
sbsg76
g0
(g105
g2
Ntp138
Rp139
(dp140
g52
I1
sg82
Nsg81
Nsg109
g73
sg69
(dp141
I140536282981136
g111
ssg89
g7
sbsg130
Nsg69
(dp142
I140536282980816
g107
ssg89
g7
sbsg69
(dp143
I140536282739536
g0
(g99
g2
Ntp144
Rp145
(dp146
g52
I1
sg103
I2
sg104
g0
(g99
g2
Ntp147
Rp148
(dp149
g52
I1
sg103
I2
sg104
g0
(g105
g2
Ntp150
Rp151
(dp152
g52
I1
sg82
Nsg81
Nsg109
g0
(g48
g2
Ntp153
Rp154
(dp155
g52
I1
sg53
g54
(g55
(I0
tp156
g57
tp157
Rp158
(I1
(I2
tp159
g64
I00
S'\x00\x00\x00\x00\x00\x00\xf0\x7f\x00\x00\x00\x00\x00\x00\xf0\x7f'
p160
tp161
bsg69
(dp162
I140536282739408
g151
ssg123
g54
(g55
(I0
tp163
g57
tp164
Rp165
(I1
(I2
I2
tp166
g64
I00
S'\x00\x00\x00\x00\x00\x00\x00\x00\x00\x00\x00\x00\x00\x00\x00\x00\x00\x00\x00\x00\x00\x00\xf0?\x00\x00\x00\x00\x00\x00\xf0?'
p167
tp168
bsg130
g54
(g55
(I0
tp169
g57
tp170
Rp171
(I1
(I2
I2
tp172
g64
I00
S'\x00\x00\x00\x00\x00\x00\x00\x00\x00\x00\x00\x00\x00\x00\x00\x00\x00\x00\x00\x00\x00\x00\xf0?\x00\x00\x00\x00\x00\x00\xf0?'
p173
tp174
bsg137
I01
sg89
g7
sbsg69
(dp175
I140536282739472
g148
ssg89
g7
sbsS'output_dims'
p176
I2
sS'_b'
p177
g0
(g77
g2
Ntp178
Rp179
(dp180
g52
I2
sg81
Nsg82
g54
(g55
(I0
tp181
g57
tp182
Rp183
(I1
(I3
I3
tp184
g64
I00
S'\x00\x00\x00\x00\x00\x00\xf0?\x00\x00\x00\x00\x00\x00\x00\x00\x00\x00\x00\x00\x00\x00\x00\x00\x00\x00\x00\x00\x00\x00\x00\x00\x00\x00\x00\x00\x00\x00\xf0?\x00\x00\x00\x00\x00\x00\x00\x00\x00\x00\x00\x00\x00\x00\x00\x00\x00\x00\x00\x00\x00\x00\x00\x00\x00\x00\x00\x00\x00\x00\xf0?'
p185
tp186
bsg89
g7
sg69
(dp187
I140536282739472
g148
ssbsg69
(dp188
I140536282739536
g145
ssg89
g7
sbsg176
I2
sg177
g107
sg69
(dp189
I140536282739600
g0
(g71
g2
Ntp190
Rp191
(dp192
g52
I1
sg75
g0
(g48
g2
Ntp193
Rp194
(dp195
g52
I1
sg53
g54
(g55
(I0
tp196
g57
tp197
Rp198
(I1
(I2
tp199
g64
I00
S'\x00\x00\x00\x00\x00\x00\xf0\x7f\x00\x00\x00\x00\x00\x00\xf0\x7f'
p200
tp201
bsg69
(dp202
I140536282739600
g191
ssg123
g54
(g55
(I0
tp203
g57
tp204
Rp205
(I1
(I2
I2
tp206
g64
I00
S'\x00\x00\x00\x00\x00\x00\x00\x00\x00\x00\x00\x00\x00\x00\x00\x00\x00\x00\x00\x00\x00\x00\xf0?\x00\x00\x00\x00\x00\x00\xf0?'
p207
tp208
bsg130
g54
(g55
(I0
tp209
g57
tp210
Rp211
(I1
(I2
I2
tp212
g64
I00
S'\x00\x00\x00\x00\x00\x00\x00\x00\x00\x00\x00\x00\x00\x00\x00\x00\x00\x00\x00\x00\x00\x00\xf0?\x00\x00\x00\x00\x00\x00\xf0?'
p213
tp214
bsg137
I01
sg89
g7
sbsg76
g145
sg130
Nsg69
(dp215
sg89
g7
sbssg89
g7
sbsI140536282981584
g0
(cmatplotlib.transforms
BlendedGenericTransform
p216
g2
Ntp217
Rp218
(dp219
g52
I2
sS'_y'
p220
g107
sS'_x'
p221
g0
(g99
g2
Ntp222
Rp223
(dp224
g52
I2
sg103
I2
sg104
g0
(cmatplotlib.transforms
TransformWrapper
p225
g2
Ntp226
Rp227
(dp228
Voutput_dims
p229
I2
sVparents
p230
(dp231
I140536282980880
g0
(g71
g2
Ntp232
Rp233
(dp234
g52
I2
sg75
g0
(g48
g2
Ntp235
Rp236
(dp237
g52
I2
sg53
g54
(g55
(I0
tp238
g57
tp239
Rp240
(I1
(I2
tp241
g64
I00
S'\x00\x00\x00\x00\x00\x00\xf0\x7f\x00\x00\x00\x00\x00\x00\xf0\x7f'
p242
tp243
bsg69
(dp244
I140536282980880
g233
ssg123
g54
(g55
(I0
tp245
g57
tp246
Rp247
(I1
(I2
I2
tp248
g64
I00
S'\x00\x00\x00\x00\x00\x00\x00\x00\x00\x00\x00\x00\x00\x00\x00\x00\x00\x00\x00\x00\x00\x00\xf0?\x00\x00\x00\x00\x00\x00\xf0?'
p249
tp250
bsg130
g54
(g55
(I0
tp251
g57
tp252
Rp253
(I1
(I2
I2
tp254
g64
I00
S'\x00\x00\x00\x00\x00\x00\x00\x00\x00\x00\x00\x00\x00\x00\x00\x00333333\xf3?333333\xf3?'
p255
tp256
bsg137
I01
sg89
g7
sbsg76
g227
sg130
Nsg69
(dp257
I140536282980944
g0
(cmatplotlib.transforms
BboxTransformFrom
p258
g2
Ntp259
Rp260
(dp261
g52
I2
sS'_boxin'
p262
g233
sg82
Nsg81
Nsg89
g7
sg69
(dp263
I140536282981456
g0
(g99
g2
Ntp264
Rp265
(dp266
g52
I2
sg103
I2
sg104
g260
sg176
I2
sg177
g107
sg69
(dp267
I140536282981520
g223
sI140536282687504
NsI140536282780304
Nssg89
g7
sbssbssg89
g7
sbsI140536282981520
g223
sI140536282780304
NsI140536282687504
NssVinput_dims
p268
I2
sVchild
p269
g0
(cmatplotlib.transforms
BlendedAffine2D
p270
g2
Ntp271
Rp272
(dp273
g52
I0
sg82
g54
(g55
(I0
tp274
g57
tp275
Rp276
(I1
(I3
I3
tp277
g64
I00
S'\x00\x00\x00\x00\x00\x00\xf0?\x00\x00\x00\x00\x00\x00\x00\x00\x00\x00\x00\x00\x00\x00\x00\x00\x00\x00\x00\x00\x00\x00\x00\x00\x00\x00\x00\x00\x00\x00\xf0?\x00\x00\x00\x00\x00\x00\x00\x00\x00\x00\x00\x00\x00\x00\x00\x00\x00\x00\x00\x00\x00\x00\x00\x00\x00\x00\x00\x00\x00\x00\xf0?'
p278
tp279
bsg220
g0
(cmatplotlib.transforms
IdentityTransform
p280
g2
Ntp281
Rp282
(dp283
g52
I1
sg81
Nsg89
g7
sg69
(dp284
I140536283034640
g272
ssbsg221
g0
(g280
g2
Ntp285
Rp286
(dp287
g52
I1
sg81
Nsg89
g7
sg69
(dp288
I140536283034640
g272
ssbsg81
Nsg89
g7
sg69
(dp289
I140536282981392
g227
ssbsbsg176
I2
sg177
g265
sg69
(dp290
I140536282981584
g218
sI140536282981648
g0
(g216
g2
Ntp291
Rp292
(dp293
g52
I2
sg220
g223
sg221
g107
sS'_affine'
p294
Nsg69
(dp295
I140536282641424
g0
(g99
g2
Ntp296
Rp297
(dp298
g52
I1
sg103
I2
sg104
g292
sg176
I2
sg177
g0
(g91
g2
Ntp299
Rp300
(dp301
g52
I1
sg82
Nsg95
g79
sg81
Nsg96
(F-0.10277777777777779
I0
tp302
sg89
g7
sg69
(dp303
I140536282641424
g297
ssbsg69
(dp304
sg89
g7
sbsI140536283068496
g0
(g99
g2
Ntp305
Rp306
(dp307
g52
I1
sg103
I2
sg104
g292
sg176
I2
sg177
g0
(g91
g2
Ntp308
Rp309
(dp310
g52
I1
sg82
Nsg95
g79
sg81
Nsg96
(F-0.125
I0
tp311
sg89
g7
sg69
(dp312
I140536283068496
g306
ssbsg69
(dp313
sg89
g7
sbsI140536282641616
g0
(g99
g2
Ntp314
Rp315
(dp316
g52
I1
sg103
I2
sg104
g292
sg176
I2
sg177
g0
(g91
g2
Ntp317
Rp318
(dp319
g52
I1
sg82
Nsg95
g79
sg81
Nsg96
(F0.10277777777777779
I0
tp320
sg89
g7
sg69
(dp321
I140536282641616
g315
ssbsg69
(dp322
sg89
g7
sbsI140536283068688
g0
(g99
g2
Ntp323
Rp324
(dp325
g52
I1
sg103
I2
sg104
g292
sg176
I2
sg177
g0
(g91
g2
Ntp326
Rp327
(dp328
g52
I1
sg82
Nsg95
g79
sg81
Nsg96
(F0.125
I0
tp329
sg89
g7
sg69
(dp330
I140536283068688
g324
ssbsg69
(dp331
sg89
g7
sbsI140536283067344
g0
(g99
g2
Ntp332
Rp333
(dp334
g52
I1
sg103
I2
sg104
g292
sg176
I2
sg177
g0
(g91
g2
Ntp335
Rp336
(dp337
g52
I1
sg82
Nsg95
g79
sg81
Nsg96
(F0.125
I0
tp338
sg89
g7
sg69
(dp339
I140536283067344
g333
ssbsg69
(dp340
sg89
g7
sbsI140536283067152
g0
(g99
g2
Ntp341
Rp342
(dp343
g52
I1
sg103
I2
sg104
g292
sg176
I2
sg177
g0
(g91
g2
Ntp344
Rp345
(dp346
g52
I1
sg82
Nsg95
g79
sg81
Nsg96
(F-0.125
I0
tp347
sg89
g7
sg69
(dp348
I140536283067152
g342
ssbsg69
(dp349
sg89
g7
sbssg89
g7
sbssg89
g7
sbsg294
Nsg69
(dp350
I140536283035856
g0
(g99
g2
Ntp351
Rp352
(dp353
g52
I1
sg103
I2
sg104
g218
sg176
I2
sg177
g0
(g91
g2
Ntp354
Rp355
(dp356
g52
I1
sg82
Nsg95
g79
sg81
Nsg96
(I0
F0.125
tp357
sg89
g7
sg69
(dp358
I140536283035856
g352
ssbsg69
(dp359
sg89
g7
sbsI140536283035600
g0
(g99
g2
Ntp360
Rp361
(dp362
g52
I1
sg103
I2
sg104
g218
sg176
I2
sg177
g0
(g91
g2
Ntp363
Rp364
(dp365
g52
I1
sg82
Nsg95
g79
sg81
Nsg96
(I0
F-0.125
tp366
sg89
g7
sg69
(dp367
I140536283035600
g361
ssbsg69
(dp368
sg89
g7
sbsI140536283036880
g0
(g99
g2
Ntp369
Rp370
(dp371
g52
I1
sg103
I2
sg104
g218
sg176
I2
sg177
g0
(g91
g2
Ntp372
Rp373
(dp374
g52
I1
sg82
Nsg95
g79
sg81
Nsg96
(I0
F-0.125
tp375
sg89
g7
sg69
(dp376
I140536283036880
g370
ssbsg69
(dp377
sg89
g7
sbsI140536282608464
g0
(g99
g2
Ntp378
Rp379
(dp380
g52
I1
sg103
I2
sg104
g218
sg176
I2
sg177
g0
(g91
g2
Ntp381
Rp382
(dp383
g52
I1
sg82
Nsg95
g79
sg81
Nsg96
(I0
F0.10277777777777779
tp384
sg89
g7
sg69
(dp385
I140536282608464
g379
ssbsg69
(dp386
sg89
g7
sbsI140536283037136
g0
(g99
g2
Ntp387
Rp388
(dp389
g52
I1
sg103
I2
sg104
g218
sg176
I2
sg177
g0
(g91
g2
Ntp390
Rp391
(dp392
g52
I1
sg82
Nsg95
g79
sg81
Nsg96
(I0
F0.125
tp393
sg89
g7
sg69
(dp394
I140536283037136
g388
ssbsg69
(dp395
sg89
g7
sbsI140536282608208
g0
(g99
g2
Ntp396
Rp397
(dp398
g52
I1
sg103
I2
sg104
g218
sg176
I2
sg177
g0
(g91
g2
Ntp399
Rp400
(dp401
g52
I1
sg82
Nsg95
g79
sg81
Nsg96
(I0
F-0.10277777777777779
tp402
sg89
g7
sg69
(dp403
I140536282608208
g397
ssbsg69
(dp404
sg89
g7
sbssg89
g7
sbsI140536282981648
g292
sI140536282642768
g0
(g99
g2
Ntp405
Rp406
(dp407
g52
I1
sg103
I2
sg104
g0
(g99
g2
Ntp408
Rp409
(dp410
g52
I1
sg103
I2
sg104
g0
(g105
g2
Ntp411
Rp412
(dp413
g52
I1
sg82
Nsg81
Nsg109
g0
(g48
g2
Ntp414
Rp415
(dp416
g52
I1
sg53
g54
(g55
(I0
tp417
g57
tp418
Rp419
(I1
(I2
tp420
g64
I00
S'\x00\x00\x00\x00\x00\x00\xf0\x7f\x00\x00\x00\x00\x00\x00\xf0\x7f'
p421
tp422
bsg69
(dp423
I140536282642640
g412
ssg123
g54
(g55
(I0
tp424
g57
tp425
Rp426
(I1
(I2
I2
tp427
g64
I00
S'\x00\x00\x00\x00\x00\x00\x00\x00\x00\x00\x00\x00\x00\x00\x00\x00\x00\x00\x00\x00\x00\x00\xf0?\x00\x00\x00\x00\x00\x00\xf0?'
p428
tp429
bsg130
g54
(g55
(I0
tp430
g57
tp431
Rp432
(I1
(I2
I2
tp433
g64
I00
S'\x00\x00\x00\x00\x00\x00\x00\x00\x00\x00\x00\x00\x00\x00\x00\x00\x00\x00\x00\x00\x00\x00\xf0?\x00\x00\x00\x00\x00\x00\xf0?'
p434
tp435
bsg137
I01
sg89
g7
sbsg69
(dp436
I140536282642704
g409
ssg89
g7
sbsg176
I2
sg177
g0
(g77
g2
Ntp437
Rp438
(dp439
g52
I2
sg81
Nsg82
g54
(g55
(I0
tp440
g57
tp441
Rp442
(I1
(I3
I3
tp443
g64
I00
S'\x00\x00\x00\x00\x00\x00\xf0?\x00\x00\x00\x00\x00\x00\x00\x00\x00\x00\x00\x00\x00\x00\x00\x00\x00\x00\x00\x00\x00\x00\x00\x00\x00\x00\x00\x00\x00\x00\xf0?\x00\x00\x00\x00\x00\x00\x00\x00\x00\x00\x00\x00\x00\x00\x00\x00\x00\x00\x00\x00\x00\x00\x00\x00\x00\x00\x00\x00\x00\x00\xf0?'
p444
tp445
bsg89
g7
sg69
(dp446
I140536282642704
g409
ssbsg69
(dp447
I140536282642768
g406
ssg89
g7
sbsg176
I2
sg177
g107
sg69
(dp448
I140536282642832
g0
(g71
g2
Ntp449
Rp450
(dp451
g52
I1
sg75
g0
(g48
g2
Ntp452
Rp453
(dp454
g52
I1
sg53
g54
(g55
(I0
tp455
g57
tp456
Rp457
(I1
(I2
tp458
g64
I00
S'\x00\x00\x00\x00\x00\x00\xf0\x7f\x00\x00\x00\x00\x00\x00\xf0\x7f'
p459
tp460
bsg69
(dp461
I140536282642832
g450
ssg123
g54
(g55
(I0
tp462
g57
tp463
Rp464
(I1
(I2
I2
tp465
g64
I00
S'\x00\x00\x00\x00\x00\x00\x00\x00\x00\x00\x00\x00\x00\x00\x00\x00\x00\x00\x00\x00\x00\x00\xf0?\x00\x00\x00\x00\x00\x00\xf0?'
p466
tp467
bsg130
g54
(g55
(I0
tp468
g57
tp469
Rp470
(I1
(I2
I2
tp471
g64
I00
S'\x00\x00\x00\x00\x00\x00\x00\x00\x00\x00\x00\x00\x00\x00\x00\x00\x00\x00\x00\x00\x00\x00\xf0?\x00\x00\x00\x00\x00\x00\xf0?'
p472
tp473
bsg137
I01
sg89
g7
sbsg76
g406
sg130
Nsg69
(dp474
sg89
g7
sbssg89
g7
sbsI140536282609552
g0
(g99
g2
Ntp475
Rp476
(dp477
g52
I1
sg103
I2
sg104
g0
(g99
g2
Ntp478
Rp479
(dp480
g52
I1
sg103
I2
sg104
g0
(g105
g2
Ntp481
Rp482
(dp483
g52
I1
sg82
Nsg81
Nsg109
g0
(g48
g2
Ntp484
Rp485
(dp486
g52
I1
sg53
g54
(g55
(I0
tp487
g57
tp488
Rp489
(I1
(I2
tp490
g64
I00
S'\x00\x00\x00\x00\x00\x00\xf0\x7f\x00\x00\x00\x00\x00\x00\xf0\x7f'
p491
tp492
bsg69
(dp493
I140536282609424
g482
ssg123
g54
(g55
(I0
tp494
g57
tp495
Rp496
(I1
(I2
I2
tp497
g64
I00
S'\x00\x00\x00\x00\x00\x00\x00\x00\x00\x00\x00\x00\x00\x00\x00\x00\x00\x00\x00\x00\x00\x00\xf0?\x00\x00\x00\x00\x00\x00\xf0?'
p498
tp499
bsg130
g54
(g55
(I0
tp500
g57
tp501
Rp502
(I1
(I2
I2
tp503
g64
I00
S'\x00\x00\x00\x00\x00\x00\x00\x00\x00\x00\x00\x00\x00\x00\x00\x00\x00\x00\x00\x00\x00\x00\xf0?\x00\x00\x00\x00\x00\x00\xf0?'
p504
tp505
bsg137
I01
sg89
g7
sbsg69
(dp506
I140536282609488
g479
ssg89
g7
sbsg176
I2
sg177
g0
(g77
g2
Ntp507
Rp508
(dp509
g52
I2
sg81
Nsg82
g54
(g55
(I0
tp510
g57
tp511
Rp512
(I1
(I3
I3
tp513
g64
I00
S'\x00\x00\x00\x00\x00\x00\xf0?\x00\x00\x00\x00\x00\x00\x00\x00\x00\x00\x00\x00\x00\x00\x00\x00\x00\x00\x00\x00\x00\x00\x00\x00\x00\x00\x00\x00\x00\x00\xf0?\x00\x00\x00\x00\x00\x00\x00\x00\x00\x00\x00\x00\x00\x00\x00\x00\x00\x00\x00\x00\x00\x00\x00\x00\x00\x00\x00\x00\x00\x00\xf0?'
p514
tp515
bsg89
g7
sg69
(dp516
I140536282609488
g479
ssbsg69
(dp517
I140536282609552
g476
ssg89
g7
sbsg176
I2
sg177
g107
sg69
(dp518
I140536282609616
g0
(g71
g2
Ntp519
Rp520
(dp521
g52
I1
sg75
g0
(g48
g2
Ntp522
Rp523
(dp524
g52
I1
sg53
g54
(g55
(I0
tp525
g57
tp526
Rp527
(I1
(I2
tp528
g64
I00
S'\x00\x00\x00\x00\x00\x00\xf0\x7f\x00\x00\x00\x00\x00\x00\xf0\x7f'
p529
tp530
bsg69
(dp531
I140536282609616
g520
ssg123
g54
(g55
(I0
tp532
g57
tp533
Rp534
(I1
(I2
I2
tp535
g64
I00
S'\x00\x00\x00\x00\x00\x00\x00\x00\x00\x00\x00\x00\x00\x00\x00\x00\x00\x00\x00\x00\x00\x00\xf0?\x00\x00\x00\x00\x00\x00\xf0?'
p536
tp537
bsg130
g54
(g55
(I0
tp538
g57
tp539
Rp540
(I1
(I2
I2
tp541
g64
I00
S'\x00\x00\x00\x00\x00\x00\x00\x00\x00\x00\x00\x00\x00\x00\x00\x00\x00\x00\x00\x00\x00\x00\xf0?\x00\x00\x00\x00\x00\x00\xf0?'
p542
tp543
bsg137
I01
sg89
g7
sbsg76
g476
sg130
Nsg69
(dp544
sg89
g7
sbssg89
g7
sbsI140536282609104
g0
(g99
g2
Ntp545
Rp546
(dp547
g52
I1
sg103
I2
sg104
g0
(g99
g2
Ntp548
Rp549
(dp550
g52
I1
sg103
I2
sg104
g0
(g105
g2
Ntp551
Rp552
(dp553
g52
I1
sg82
Nsg81
Nsg109
g0
(g48
g2
Ntp554
Rp555
(dp556
g52
I1
sg53
g54
(g55
(I0
tp557
g57
tp558
Rp559
(I1
(I2
tp560
g64
I00
S'\x00\x00\x00\x00\x00\x00\xf0\x7f\x00\x00\x00\x00\x00\x00\xf0\x7f'
p561
tp562
bsg69
(dp563
I140536282608976
g552
ssg123
g54
(g55
(I0
tp564
g57
tp565
Rp566
(I1
(I2
I2
tp567
g64
I00
S'\x00\x00\x00\x00\x00\x00\x00\x00\x00\x00\x00\x00\x00\x00\x00\x00\x00\x00\x00\x00\x00\x00\xf0?\x00\x00\x00\x00\x00\x00\xf0?'
p568
tp569
bsg130
g54
(g55
(I0
tp570
g57
tp571
Rp572
(I1
(I2
I2
tp573
g64
I00
S'\x00\x00\x00\x00\x00\x00\x00\x00\x00\x00\x00\x00\x00\x00\x00\x00\x00\x00\x00\x00\x00\x00\xf0?\x00\x00\x00\x00\x00\x00\xf0?'
p574
tp575
bsg137
I01
sg89
g7
sbsg69
(dp576
I140536282609040
g549
ssg89
g7
sbsg176
I2
sg177
g0
(g77
g2
Ntp577
Rp578
(dp579
g52
I2
sg81
Nsg82
g54
(g55
(I0
tp580
g57
tp581
Rp582
(I1
(I3
I3
tp583
g64
I00
S'\x00\x00\x00\x00\x00\x00\xf0?\x00\x00\x00\x00\x00\x00\x00\x00\x00\x00\x00\x00\x00\x00\x00\x00\x00\x00\x00\x00\x00\x00\x00\x00\x00\x00\x00\x00\x00\x00\xf0?\x00\x00\x00\x00\x00\x00\x00\x00\x00\x00\x00\x00\x00\x00\x00\x00\x00\x00\x00\x00\x00\x00\x00\x00\x00\x00\x00\x00\x00\x00\xf0?'
p584
tp585
bsg89
g7
sg69
(dp586
I140536282609040
g549
ssbsg69
(dp587
I140536282609104
g546
ssg89
g7
sbsg176
I2
sg177
g107
sg69
(dp588
I140536282609168
g0
(g71
g2
Ntp589
Rp590
(dp591
g52
I1
sg75
g0
(g48
g2
Ntp592
Rp593
(dp594
g52
I1
sg53
g54
(g55
(I0
tp595
g57
tp596
Rp597
(I1
(I2
tp598
g64
I00
S'\x00\x00\x00\x00\x00\x00\xf0\x7f\x00\x00\x00\x00\x00\x00\xf0\x7f'
p599
tp600
bsg69
(dp601
I140536282609168
g590
ssg123
g54
(g55
(I0
tp602
g57
tp603
Rp604
(I1
(I2
I2
tp605
g64
I00
S'\x00\x00\x00\x00\x00\x00\x00\x00\x00\x00\x00\x00\x00\x00\x00\x00\x00\x00\x00\x00\x00\x00\xf0?\x00\x00\x00\x00\x00\x00\xf0?'
p606
tp607
bsg130
g54
(g55
(I0
tp608
g57
tp609
Rp610
(I1
(I2
I2
tp611
g64
I00
S'\x00\x00\x00\x00\x00\x00\x00\x00\x00\x00\x00\x00\x00\x00\x00\x00\x00\x00\x00\x00\x00\x00\xf0?\x00\x00\x00\x00\x00\x00\xf0?'
p612
tp613
bsg137
I01
sg89
g7
sbsg76
g546
sg130
Nsg69
(dp614
sg89
g7
sbssg89
g7
sbsI140536282687248
g0
(g99
g2
Ntp615
Rp616
(dp617
g52
I1
sg103
I2
sg104
g0
(g99
g2
Ntp618
Rp619
(dp620
g52
I1
sg103
I2
sg104
g0
(g105
g2
Ntp621
Rp622
(dp623
g52
I1
sg82
Nsg81
Nsg109
g0
(g48
g2
Ntp624
Rp625
(dp626
g52
I1
sg53
g54
(g55
(I0
tp627
g57
tp628
Rp629
(I1
(I2
tp630
g64
I00
S'\x00\x00\x00\x00\x00\x00\xf0\x7f\x00\x00\x00\x00\x00\x00\xf0\x7f'
p631
tp632
bsg69
(dp633
I140536282687120
g622
ssg123
g54
(g55
(I0
tp634
g57
tp635
Rp636
(I1
(I2
I2
tp637
g64
I00
S'\x00\x00\x00\x00\x00\x00\x00\x00\x00\x00\x00\x00\x00\x00\x00\x00\x00\x00\x00\x00\x00\x00\xf0?\x00\x00\x00\x00\x00\x00\xf0?'
p638
tp639
bsg130
g54
(g55
(I0
tp640
g57
tp641
Rp642
(I1
(I2
I2
tp643
g64
I00
S'\x00\x00\x00\x00\x00\x00\x00\x00\x00\x00\x00\x00\x00\x00\x00\x00\x00\x00\x00\x00\x00\x00\xf0?\x00\x00\x00\x00\x00\x00\xf0?'
p644
tp645
bsg137
I01
sg89
g7
sbsg69
(dp646
I140536282687184
g619
ssg89
g7
sbsg176
I2
sg177
g0
(g77
g2
Ntp647
Rp648
(dp649
g52
I2
sg81
Nsg82
g54
(g55
(I0
tp650
g57
tp651
Rp652
(I1
(I3
I3
tp653
g64
I00
S'\x00\x00\x00\x00\x00\x00\xf0?\x00\x00\x00\x00\x00\x00\x00\x00\x00\x00\x00\x00\x00\x00\x00\x00\x00\x00\x00\x00\x00\x00\x00\x00\x00\x00\x00\x00\x00\x00\xf0?\x00\x00\x00\x00\x00\x00\x00\x00\x00\x00\x00\x00\x00\x00\x00\x00\x00\x00\x00\x00\x00\x00\x00\x00\x00\x00\x00\x00\x00\x00\xf0?'
p654
tp655
bsg89
g7
sg69
(dp656
I140536282687184
g619
ssbsg69
(dp657
I140536282687248
g616
ssg89
g7
sbsg176
I2
sg177
g107
sg69
(dp658
I140536282687312
g0
(g71
g2
Ntp659
Rp660
(dp661
g52
I1
sg75
g0
(g48
g2
Ntp662
Rp663
(dp664
g52
I1
sg53
g54
(g55
(I0
tp665
g57
tp666
Rp667
(I1
(I2
tp668
g64
I00
S'\x00\x00\x00\x00\x00\x00\xf0\x7f\x00\x00\x00\x00\x00\x00\xf0\x7f'
p669
tp670
bsg69
(dp671
I140536282687312
g660
ssg123
g54
(g55
(I0
tp672
g57
tp673
Rp674
(I1
(I2
I2
tp675
g64
I00
S'\x00\x00\x00\x00\x00\x00\x00\x00\x00\x00\x00\x00\x00\x00\x00\x00\x00\x00\x00\x00\x00\x00\xf0?\x00\x00\x00\x00\x00\x00\xf0?'
p676
tp677
bsg130
g54
(g55
(I0
tp678
g57
tp679
Rp680
(I1
(I2
I2
tp681
g64
I00
S'\x00\x00\x00\x00\x00\x00\x00\x00\x00\x00\x00\x00\x00\x00\x00\x00\x00\x00\x00\x00\x00\x00\xf0?\x00\x00\x00\x00\x00\x00\xf0?'
p682
tp683
bsg137
I01
sg89
g7
sbsg76
g616
sg130
Nsg69
(dp684
sg89
g7
sbssg89
g7
sbsI140536282642320
g0
(g99
g2
Ntp685
Rp686
(dp687
g52
I1
sg103
I2
sg104
g0
(g99
g2
Ntp688
Rp689
(dp690
g52
I1
sg103
I2
sg104
g0
(g105
g2
Ntp691
Rp692
(dp693
g52
I1
sg82
Nsg81
Nsg109
g0
(g48
g2
Ntp694
Rp695
(dp696
g52
I1
sg53
g54
(g55
(I0
tp697
g57
tp698
Rp699
(I1
(I2
tp700
g64
I00
S'\x00\x00\x00\x00\x00\x00\xf0\x7f\x00\x00\x00\x00\x00\x00\xf0\x7f'
p701
tp702
bsg69
(dp703
I140536282642192
g692
ssg123
g54
(g55
(I0
tp704
g57
tp705
Rp706
(I1
(I2
I2
tp707
g64
I00
S'\x00\x00\x00\x00\x00\x00\x00\x00\x00\x00\x00\x00\x00\x00\x00\x00\x00\x00\x00\x00\x00\x00\xf0?\x00\x00\x00\x00\x00\x00\xf0?'
p708
tp709
bsg130
g54
(g55
(I0
tp710
g57
tp711
Rp712
(I1
(I2
I2
tp713
g64
I00
S'\x00\x00\x00\x00\x00\x00\x00\x00\x00\x00\x00\x00\x00\x00\x00\x00\x00\x00\x00\x00\x00\x00\xf0?\x00\x00\x00\x00\x00\x00\xf0?'
p714
tp715
bsg137
I01
sg89
g7
sbsg69
(dp716
I140536282642256
g689
ssg89
g7
sbsg176
I2
sg177
g0
(g77
g2
Ntp717
Rp718
(dp719
g52
I2
sg81
Nsg82
g54
(g55
(I0
tp720
g57
tp721
Rp722
(I1
(I3
I3
tp723
g64
I00
S'\x00\x00\x00\x00\x00\x00\xf0?\x00\x00\x00\x00\x00\x00\x00\x00\x00\x00\x00\x00\x00\x00\x00\x00\x00\x00\x00\x00\x00\x00\x00\x00\x00\x00\x00\x00\x00\x00\xf0?\x00\x00\x00\x00\x00\x00\x00\x00\x00\x00\x00\x00\x00\x00\x00\x00\x00\x00\x00\x00\x00\x00\x00\x00\x00\x00\x00\x00\x00\x00\xf0?'
p724
tp725
bsg89
g7
sg69
(dp726
I140536282642256
g689
ssbsg69
(dp727
I140536282642320
g686
ssg89
g7
sbsg176
I2
sg177
g107
sg69
(dp728
I140536282642384
g0
(g71
g2
Ntp729
Rp730
(dp731
g52
I1
sg75
g0
(g48
g2
Ntp732
Rp733
(dp734
g52
I1
sg53
g54
(g55
(I0
tp735
g57
tp736
Rp737
(I1
(I2
tp738
g64
I00
S'\x00\x00\x00\x00\x00\x00\xf0\x7f\x00\x00\x00\x00\x00\x00\xf0\x7f'
p739
tp740
bsg69
(dp741
I140536282642384
g730
ssg123
g54
(g55
(I0
tp742
g57
tp743
Rp744
(I1
(I2
I2
tp745
g64
I00
S'\x00\x00\x00\x00\x00\x00\x00\x00\x00\x00\x00\x00\x00\x00\x00\x00\x00\x00\x00\x00\x00\x00\xf0?\x00\x00\x00\x00\x00\x00\xf0?'
p746
tp747
bsg130
g54
(g55
(I0
tp748
g57
tp749
Rp750
(I1
(I2
I2
tp751
g64
I00
S'\x00\x00\x00\x00\x00\x00\x00\x00\x00\x00\x00\x00\x00\x00\x00\x00\x00\x00\x00\x00\x00\x00\xf0?\x00\x00\x00\x00\x00\x00\xf0?'
p752
tp753
bsg137
I01
sg89
g7
sbsg76
g686
sg130
Nsg69
(dp754
sg89
g7
sbssg89
g7
sbsI140536282640464
g0
(g99
g2
Ntp755
Rp756
(dp757
g52
I1
sg103
I2
sg104
g0
(g99
g2
Ntp758
Rp759
(dp760
g52
I1
sg103
I2
sg104
g0
(g105
g2
Ntp761
Rp762
(dp763
g52
I1
sg82
Nsg81
Nsg109
g0
(g48
g2
Ntp764
Rp765
(dp766
g52
I1
sg53
g54
(g55
(I0
tp767
g57
tp768
Rp769
(I1
(I2
tp770
g64
I00
S'\x00\x00\x00\x00\x00\x00\xf0\x7f\x00\x00\x00\x00\x00\x00\xf0\x7f'
p771
tp772
bsg69
(dp773
I140536282611600
g762
ssg123
g54
(g55
(I0
tp774
g57
tp775
Rp776
(I1
(I2
I2
tp777
g64
I00
S'\x00\x00\x00\x00\x00\x00\x00\x00\x00\x00\x00\x00\x00\x00\x00\x00\x00\x00\x00\x00\x00\x00\xf0?\x00\x00\x00\x00\x00\x00\xf0?'
p778
tp779
bsg130
g54
(g55
(I0
tp780
g57
tp781
Rp782
(I1
(I2
I2
tp783
g64
I00
S'\x00\x00\x00\x00\x00\x00\x00\x00\x00\x00\x00\x00\x00\x00\x00\x00\x00\x00\x00\x00\x00\x00\xf0?\x00\x00\x00\x00\x00\x00\xf0?'
p784
tp785
bsg137
I01
sg89
g7
sbsg69
(dp786
I140536282611664
g759
ssg89
g7
sbsg176
I2
sg177
g0
(g77
g2
Ntp787
Rp788
(dp789
g52
I2
sg81
Nsg82
g54
(g55
(I0
tp790
g57
tp791
Rp792
(I1
(I3
I3
tp793
g64
I00
S'\x00\x00\x00\x00\x00\x00\xf0?\x00\x00\x00\x00\x00\x00\x00\x00\x00\x00\x00\x00\x00\x00\x00\x00\x00\x00\x00\x00\x00\x00\x00\x00\x00\x00\x00\x00\x00\x00\xf0?\x00\x00\x00\x00\x00\x00\x00\x00\x00\x00\x00\x00\x00\x00\x00\x00\x00\x00\x00\x00\x00\x00\x00\x00\x00\x00\x00\x00\x00\x00\xf0?'
p794
tp795
bsg89
g7
sg69
(dp796
I140536282611664
g759
ssbsg69
(dp797
I140536282640464
g756
ssg89
g7
sbsg176
I2
sg177
g107
sg69
(dp798
I140536282640528
g0
(g71
g2
Ntp799
Rp800
(dp801
g52
I1
sg75
g0
(g48
g2
Ntp802
Rp803
(dp804
g52
I1
sg53
g54
(g55
(I0
tp805
g57
tp806
Rp807
(I1
(I2
tp808
g64
I00
S'\x00\x00\x00\x00\x00\x00\xf0\x7f\x00\x00\x00\x00\x00\x00\xf0\x7f'
p809
tp810
bsg69
(dp811
I140536282640528
g800
ssg123
g54
(g55
(I0
tp812
g57
tp813
Rp814
(I1
(I2
I2
tp815
g64
I00
S'\x00\x00\x00\x00\x00\x00\x00\x00\x00\x00\x00\x00\x00\x00\x00\x00\x00\x00\x00\x00\x00\x00\xf0?\x00\x00\x00\x00\x00\x00\xf0?'
p816
tp817
bsg130
g54
(g55
(I0
tp818
g57
tp819
Rp820
(I1
(I2
I2
tp821
g64
I00
S'\x00\x00\x00\x00\x00\x00\x00\x00\x00\x00\x00\x00\x00\x00\x00\x00\x00\x00\x00\x00\x00\x00\xf0?\x00\x00\x00\x00\x00\x00\xf0?'
p822
tp823
bsg137
I01
sg89
g7
sbsg76
g756
sg130
Nsg69
(dp824
sg89
g7
sbssg89
g7
sbsI140536282610000
g0
(g99
g2
Ntp825
Rp826
(dp827
g52
I1
sg103
I2
sg104
g0
(g99
g2
Ntp828
Rp829
(dp830
g52
I1
sg103
I2
sg104
g0
(g105
g2
Ntp831
Rp832
(dp833
g52
I1
sg82
Nsg81
Nsg109
g0
(g48
g2
Ntp834
Rp835
(dp836
g52
I1
sg53
g54
(g55
(I0
tp837
g57
tp838
Rp839
(I1
(I2
tp840
g64
I00
S'\x00\x00\x00\x00\x00\x00\xf0\x7f\x00\x00\x00\x00\x00\x00\xf0\x7f'
p841
tp842
bsg69
(dp843
I140536282609872
g832
ssg123
g54
(g55
(I0
tp844
g57
tp845
Rp846
(I1
(I2
I2
tp847
g64
I00
S'\x00\x00\x00\x00\x00\x00\x00\x00\x00\x00\x00\x00\x00\x00\x00\x00\x00\x00\x00\x00\x00\x00\xf0?\x00\x00\x00\x00\x00\x00\xf0?'
p848
tp849
bsg130
g54
(g55
(I0
tp850
g57
tp851
Rp852
(I1
(I2
I2
tp853
g64
I00
S'\x00\x00\x00\x00\x00\x00\x00\x00\x00\x00\x00\x00\x00\x00\x00\x00\x00\x00\x00\x00\x00\x00\xf0?\x00\x00\x00\x00\x00\x00\xf0?'
p854
tp855
bsg137
I01
sg89
g7
sbsg69
(dp856
I140536282609936
g829
ssg89
g7
sbsg176
I2
sg177
g0
(g77
g2
Ntp857
Rp858
(dp859
g52
I2
sg81
Nsg82
g54
(g55
(I0
tp860
g57
tp861
Rp862
(I1
(I3
I3
tp863
g64
I00
S'\x00\x00\x00\x00\x00\x00\xf0?\x00\x00\x00\x00\x00\x00\x00\x00\x00\x00\x00\x00\x00\x00\x00\x00\x00\x00\x00\x00\x00\x00\x00\x00\x00\x00\x00\x00\x00\x00\xf0?\x00\x00\x00\x00\x00\x00\x00\x00\x00\x00\x00\x00\x00\x00\x00\x00\x00\x00\x00\x00\x00\x00\x00\x00\x00\x00\x00\x00\x00\x00\xf0?'
p864
tp865
bsg89
g7
sg69
(dp866
I140536282609936
g829
ssbsg69
(dp867
I140536282610000
g826
ssg89
g7
sbsg176
I2
sg177
g107
sg69
(dp868
I140536282610064
g0
(g71
g2
Ntp869
Rp870
(dp871
g52
I1
sg75
g0
(g48
g2
Ntp872
Rp873
(dp874
g52
I1
sg53
g54
(g55
(I0
tp875
g57
tp876
Rp877
(I1
(I2
tp878
g64
I00
S'\x00\x00\x00\x00\x00\x00\xf0\x7f\x00\x00\x00\x00\x00\x00\xf0\x7f'
p879
tp880
bsg69
(dp881
I140536282610064
g870
ssg123
g54
(g55
(I0
tp882
g57
tp883
Rp884
(I1
(I2
I2
tp885
g64
I00
S'\x00\x00\x00\x00\x00\x00\x00\x00\x00\x00\x00\x00\x00\x00\x00\x00\x00\x00\x00\x00\x00\x00\xf0?\x00\x00\x00\x00\x00\x00\xf0?'
p886
tp887
bsg130
g54
(g55
(I0
tp888
g57
tp889
Rp890
(I1
(I2
I2
tp891
g64
I00
S'\x00\x00\x00\x00\x00\x00\x00\x00\x00\x00\x00\x00\x00\x00\x00\x00\x00\x00\x00\x00\x00\x00\xf0?\x00\x00\x00\x00\x00\x00\xf0?'
p892
tp893
bsg137
I01
sg89
g7
sbsg76
g826
sg130
Nsg69
(dp894
sg89
g7
sbssg89
g7
sbsI140536282610448
g0
(g99
g2
Ntp895
Rp896
(dp897
g52
I1
sg103
I2
sg104
g0
(g99
g2
Ntp898
Rp899
(dp900
g52
I1
sg103
I2
sg104
g0
(g105
g2
Ntp901
Rp902
(dp903
g52
I1
sg82
Nsg81
Nsg109
g0
(g48
g2
Ntp904
Rp905
(dp906
g52
I1
sg53
g54
(g55
(I0
tp907
g57
tp908
Rp909
(I1
(I2
tp910
g64
I00
S'\x00\x00\x00\x00\x00\x00\xf0\x7f\x00\x00\x00\x00\x00\x00\xf0\x7f'
p911
tp912
bsg69
(dp913
I140536282610320
g902
ssg123
g54
(g55
(I0
tp914
g57
tp915
Rp916
(I1
(I2
I2
tp917
g64
I00
S'\x00\x00\x00\x00\x00\x00\x00\x00\x00\x00\x00\x00\x00\x00\x00\x00\x00\x00\x00\x00\x00\x00\xf0?\x00\x00\x00\x00\x00\x00\xf0?'
p918
tp919
bsg130
g54
(g55
(I0
tp920
g57
tp921
Rp922
(I1
(I2
I2
tp923
g64
I00
S'\x00\x00\x00\x00\x00\x00\x00\x00\x00\x00\x00\x00\x00\x00\x00\x00\x00\x00\x00\x00\x00\x00\xf0?\x00\x00\x00\x00\x00\x00\xf0?'
p924
tp925
bsg137
I01
sg89
g7
sbsg69
(dp926
I140536282610384
g899
ssg89
g7
sbsg176
I2
sg177
g0
(g77
g2
Ntp927
Rp928
(dp929
g52
I2
sg81
Nsg82
g54
(g55
(I0
tp930
g57
tp931
Rp932
(I1
(I3
I3
tp933
g64
I00
S'\x00\x00\x00\x00\x00\x00\xf0?\x00\x00\x00\x00\x00\x00\x00\x00\x00\x00\x00\x00\x00\x00\x00\x00\x00\x00\x00\x00\x00\x00\x00\x00\x00\x00\x00\x00\x00\x00\xf0?\x00\x00\x00\x00\x00\x00\x00\x00\x00\x00\x00\x00\x00\x00\x00\x00\x00\x00\x00\x00\x00\x00\x00\x00\x00\x00\x00\x00\x00\x00\xf0?'
p934
tp935
bsg89
g7
sg69
(dp936
I140536282610384
g899
ssbsg69
(dp937
I140536282610448
g896
ssg89
g7
sbsg176
I2
sg177
g107
sg69
(dp938
I140536282610512
g0
(g71
g2
Ntp939
Rp940
(dp941
g52
I1
sg75
g0
(g48
g2
Ntp942
Rp943
(dp944
g52
I1
sg53
g54
(g55
(I0
tp945
g57
tp946
Rp947
(I1
(I2
tp948
g64
I00
S'\x00\x00\x00\x00\x00\x00\xf0\x7f\x00\x00\x00\x00\x00\x00\xf0\x7f'
p949
tp950
bsg69
(dp951
I140536282610512
g940
ssg123
g54
(g55
(I0
tp952
g57
tp953
Rp954
(I1
(I2
I2
tp955
g64
I00
S'\x00\x00\x00\x00\x00\x00\x00\x00\x00\x00\x00\x00\x00\x00\x00\x00\x00\x00\x00\x00\x00\x00\xf0?\x00\x00\x00\x00\x00\x00\xf0?'
p956
tp957
bsg130
g54
(g55
(I0
tp958
g57
tp959
Rp960
(I1
(I2
I2
tp961
g64
I00
S'\x00\x00\x00\x00\x00\x00\x00\x00\x00\x00\x00\x00\x00\x00\x00\x00\x00\x00\x00\x00\x00\x00\xf0?\x00\x00\x00\x00\x00\x00\xf0?'
p962
tp963
bsg137
I01
sg89
g7
sbsg76
g896
sg130
Nsg69
(dp964
sg89
g7
sbssg89
g7
sbsI140536282643216
g0
(g99
g2
Ntp965
Rp966
(dp967
g52
I1
sg103
I2
sg104
g0
(g99
g2
Ntp968
Rp969
(dp970
g52
I1
sg103
I2
sg104
g0
(g105
g2
Ntp971
Rp972
(dp973
g52
I1
sg82
Nsg81
Nsg109
g0
(g48
g2
Ntp974
Rp975
(dp976
g52
I1
sg53
g54
(g55
(I0
tp977
g57
tp978
Rp979
(I1
(I2
tp980
g64
I00
S'\x00\x00\x00\x00\x00\x00\xf0\x7f\x00\x00\x00\x00\x00\x00\xf0\x7f'
p981
tp982
bsg69
(dp983
I140536282643088
g972
ssg123
g54
(g55
(I0
tp984
g57
tp985
Rp986
(I1
(I2
I2
tp987
g64
I00
S'\x00\x00\x00\x00\x00\x00\x00\x00\x00\x00\x00\x00\x00\x00\x00\x00\x00\x00\x00\x00\x00\x00\xf0?\x00\x00\x00\x00\x00\x00\xf0?'
p988
tp989
bsg130
g54
(g55
(I0
tp990
g57
tp991
Rp992
(I1
(I2
I2
tp993
g64
I00
S'\x00\x00\x00\x00\x00\x00\x00\x00\x00\x00\x00\x00\x00\x00\x00\x00\x00\x00\x00\x00\x00\x00\xf0?\x00\x00\x00\x00\x00\x00\xf0?'
p994
tp995
bsg137
I01
sg89
g7
sbsg69
(dp996
I140536282643152
g969
ssg89
g7
sbsg176
I2
sg177
g0
(g77
g2
Ntp997
Rp998
(dp999
g52
I2
sg81
Nsg82
g54
(g55
(I0
tp1000
g57
tp1001
Rp1002
(I1
(I3
I3
tp1003
g64
I00
S'\x00\x00\x00\x00\x00\x00\xf0?\x00\x00\x00\x00\x00\x00\x00\x00\x00\x00\x00\x00\x00\x00\x00\x00\x00\x00\x00\x00\x00\x00\x00\x00\x00\x00\x00\x00\x00\x00\xf0?\x00\x00\x00\x00\x00\x00\x00\x00\x00\x00\x00\x00\x00\x00\x00\x00\x00\x00\x00\x00\x00\x00\x00\x00\x00\x00\x00\x00\x00\x00\xf0?'
p1004
tp1005
bsg89
g7
sg69
(dp1006
I140536282643152
g969
ssbsg69
(dp1007
I140536282643216
g966
ssg89
g7
sbsg176
I2
sg177
g107
sg69
(dp1008
I140536282643280
g0
(g71
g2
Ntp1009
Rp1010
(dp1011
g52
I1
sg75
g0
(g48
g2
Ntp1012
Rp1013
(dp1014
g52
I1
sg53
g54
(g55
(I0
tp1015
g57
tp1016
Rp1017
(I1
(I2
tp1018
g64
I00
S'\x00\x00\x00\x00\x00\x00\xf0\x7f\x00\x00\x00\x00\x00\x00\xf0\x7f'
p1019
tp1020
bsg69
(dp1021
I140536282643280
g1010
ssg123
g54
(g55
(I0
tp1022
g57
tp1023
Rp1024
(I1
(I2
I2
tp1025
g64
I00
S'\x00\x00\x00\x00\x00\x00\x00\x00\x00\x00\x00\x00\x00\x00\x00\x00\x00\x00\x00\x00\x00\x00\xf0?\x00\x00\x00\x00\x00\x00\xf0?'
p1026
tp1027
bsg130
g54
(g55
(I0
tp1028
g57
tp1029
Rp1030
(I1
(I2
I2
tp1031
g64
I00
S'\x00\x00\x00\x00\x00\x00\x00\x00\x00\x00\x00\x00\x00\x00\x00\x00\x00\x00\x00\x00\x00\x00\xf0?\x00\x00\x00\x00\x00\x00\xf0?'
p1032
tp1033
bsg137
I01
sg89
g7
sbsg76
g966
sg130
Nsg69
(dp1034
sg89
g7
sbssg89
g7
sbsI140536282983376
g0
(g270
g2
Ntp1035
Rp1036
(dp1037
g52
I1
sg82
Nsg220
g0
(g280
g2
Ntp1038
Rp1039
(dp1040
g52
I1
sg81
Nsg89
g7
sg69
(dp1041
I140536282983376
g1036
ssbsg221
g107
sg81
Nsg89
g7
sg69
(dp1042
sbsI140536283069456
g101
sI140536283069520
g0
(g99
g2
Ntp1043
Rp1044
(dp1045
g52
I1
sg103
I2
sg104
g107
sg176
I2
sg177
g93
sg69
(dp1046
sg89
g7
sbsI140536283069584
g0
(g99
g2
Ntp1047
Rp1048
(dp1049
g52
I1
sg103
I2
sg104
g107
sg176
I2
sg177
g93
sg69
(dp1050
sg89
g7
sbsI140536282643664
g0
(g99
g2
Ntp1051
Rp1052
(dp1053
g52
I1
sg103
I2
sg104
g0
(g99
g2
Ntp1054
Rp1055
(dp1056
g52
I1
sg103
I2
sg104
g0
(g105
g2
Ntp1057
Rp1058
(dp1059
g52
I1
sg82
Nsg81
Nsg109
g0
(g48
g2
Ntp1060
Rp1061
(dp1062
g52
I1
sg53
g54
(g55
(I0
tp1063
g57
tp1064
Rp1065
(I1
(I2
tp1066
g64
I00
S'\x00\x00\x00\x00\x00\x00\xf0\x7f\x00\x00\x00\x00\x00\x00\xf0\x7f'
p1067
tp1068
bsg69
(dp1069
I140536282643536
g1058
ssg123
g54
(g55
(I0
tp1070
g57
tp1071
Rp1072
(I1
(I2
I2
tp1073
g64
I00
S'\x00\x00\x00\x00\x00\x00\x00\x00\x00\x00\x00\x00\x00\x00\x00\x00\x00\x00\x00\x00\x00\x00\xf0?\x00\x00\x00\x00\x00\x00\xf0?'
p1074
tp1075
bsg130
g54
(g55
(I0
tp1076
g57
tp1077
Rp1078
(I1
(I2
I2
tp1079
g64
I00
S'\x00\x00\x00\x00\x00\x00\x00\x00\x00\x00\x00\x00\x00\x00\x00\x00\x00\x00\x00\x00\x00\x00\xf0?\x00\x00\x00\x00\x00\x00\xf0?'
p1080
tp1081
bsg137
I01
sg89
g7
sbsg69
(dp1082
I140536282643600
g1055
ssg89
g7
sbsg176
I2
sg177
g0
(g77
g2
Ntp1083
Rp1084
(dp1085
g52
I2
sg81
Nsg82
g54
(g55
(I0
tp1086
g57
tp1087
Rp1088
(I1
(I3
I3
tp1089
g64
I00
S'\x00\x00\x00\x00\x00\x00\xf0?\x00\x00\x00\x00\x00\x00\x00\x00\x00\x00\x00\x00\x00\x00\x00\x00\x00\x00\x00\x00\x00\x00\x00\x00\x00\x00\x00\x00\x00\x00\xf0?\x00\x00\x00\x00\x00\x00\x00\x00\x00\x00\x00\x00\x00\x00\x00\x00\x00\x00\x00\x00\x00\x00\x00\x00\x00\x00\x00\x00\x00\x00\xf0?'
p1090
tp1091
bsg89
g7
sg69
(dp1092
I140536282643600
g1055
ssbsg69
(dp1093
I140536282643664
g1052
ssg89
g7
sbsg176
I2
sg177
g107
sg69
(dp1094
I140536282643728
g0
(g71
g2
Ntp1095
Rp1096
(dp1097
g52
I1
sg75
g0
(g48
g2
Ntp1098
Rp1099
(dp1100
g52
I1
sg53
g54
(g55
(I0
tp1101
g57
tp1102
Rp1103
(I1
(I2
tp1104
g64
I00
S'\x00\x00\x00\x00\x00\x00\xf0\x7f\x00\x00\x00\x00\x00\x00\xf0\x7f'
p1105
tp1106
bsg69
(dp1107
I140536282643728
g1096
ssg123
g54
(g55
(I0
tp1108
g57
tp1109
Rp1110
(I1
(I2
I2
tp1111
g64
I00
S'\x00\x00\x00\x00\x00\x00\x00\x00\x00\x00\x00\x00\x00\x00\x00\x00\x00\x00\x00\x00\x00\x00\xf0?\x00\x00\x00\x00\x00\x00\xf0?'
p1112
tp1113
bsg130
g54
(g55
(I0
tp1114
g57
tp1115
Rp1116
(I1
(I2
I2
tp1117
g64
I00
S'\x00\x00\x00\x00\x00\x00\x00\x00\x00\x00\x00\x00\x00\x00\x00\x00\x00\x00\x00\x00\x00\x00\xf0?\x00\x00\x00\x00\x00\x00\xf0?'
p1118
tp1119
bsg137
I01
sg89
g7
sbsg76
g1052
sg130
Nsg69
(dp1120
sg89
g7
sbssg89
g7
sbsI140536282742224
g0
(g99
g2
Ntp1121
Rp1122
(dp1123
g52
I1
sg103
I2
sg104
g0
(g99
g2
Ntp1124
Rp1125
(dp1126
g52
I1
sg103
I2
sg104
g0
(g105
g2
Ntp1127
Rp1128
(dp1129
g52
I1
sg82
Nsg81
Nsg109
g0
(g48
g2
Ntp1130
Rp1131
(dp1132
g52
I1
sg53
g54
(g55
(I0
tp1133
g57
tp1134
Rp1135
(I1
(I2
tp1136
g64
I00
S'\x00\x00\x00\x00\x00\x00\xf0\x7f\x00\x00\x00\x00\x00\x00\xf0\x7f'
p1137
tp1138
bsg69
(dp1139
I140536282742096
g1128
ssg123
g54
(g55
(I0
tp1140
g57
tp1141
Rp1142
(I1
(I2
I2
tp1143
g64
I00
S'\x00\x00\x00\x00\x00\x00\x00\x00\x00\x00\x00\x00\x00\x00\x00\x00\x00\x00\x00\x00\x00\x00\xf0?\x00\x00\x00\x00\x00\x00\xf0?'
p1144
tp1145
bsg130
g54
(g55
(I0
tp1146
g57
tp1147
Rp1148
(I1
(I2
I2
tp1149
g64
I00
S'\x00\x00\x00\x00\x00\x00\x00\x00\x00\x00\x00\x00\x00\x00\x00\x00\x00\x00\x00\x00\x00\x00\xf0?\x00\x00\x00\x00\x00\x00\xf0?'
p1150
tp1151
bsg137
I01
sg89
g7
sbsg69
(dp1152
I140536282742160
g1125
ssg89
g7
sbsg176
I2
sg177
g0
(g77
g2
Ntp1153
Rp1154
(dp1155
g52
I2
sg81
Nsg82
g54
(g55
(I0
tp1156
g57
tp1157
Rp1158
(I1
(I3
I3
tp1159
g64
I00
S'\x00\x00\x00\x00\x00\x00\xf0?\x00\x00\x00\x00\x00\x00\x00\x00\x00\x00\x00\x00\x00\x00\x00\x00\x00\x00\x00\x00\x00\x00\x00\x00\x00\x00\x00\x00\x00\x00\xf0?\x00\x00\x00\x00\x00\x00\x00\x00\x00\x00\x00\x00\x00\x00\x00\x00\x00\x00\x00\x00\x00\x00\x00\x00\x00\x00\x00\x00\x00\x00\xf0?'
p1160
tp1161
bsg89
g7
sg69
(dp1162
I140536282742160
g1125
ssbsg69
(dp1163
I140536282742224
g1122
ssg89
g7
sbsg176
I2
sg177
g107
sg69
(dp1164
I140536282742288
g0
(g71
g2
Ntp1165
Rp1166
(dp1167
g52
I1
sg75
g0
(g48
g2
Ntp1168
Rp1169
(dp1170
g52
I1
sg53
g54
(g55
(I0
tp1171
g57
tp1172
Rp1173
(I1
(I2
tp1174
g64
I00
S'\x00\x00\x00\x00\x00\x00\xf0\x7f\x00\x00\x00\x00\x00\x00\xf0\x7f'
p1175
tp1176
bsg69
(dp1177
I140536282742288
g1166
ssg123
g54
(g55
(I0
tp1178
g57
tp1179
Rp1180
(I1
(I2
I2
tp1181
g64
I00
S'\x00\x00\x00\x00\x00\x00\x00\x00\x00\x00\x00\x00\x00\x00\x00\x00\x00\x00\x00\x00\x00\x00\xf0?\x00\x00\x00\x00\x00\x00\xf0?'
p1182
tp1183
bsg130
g54
(g55
(I0
tp1184
g57
tp1185
Rp1186
(I1
(I2
I2
tp1187
g64
I00
S'\x00\x00\x00\x00\x00\x00\x00\x00\x00\x00\x00\x00\x00\x00\x00\x00\x00\x00\x00\x00\x00\x00\xf0?\x00\x00\x00\x00\x00\x00\xf0?'
p1188
tp1189
bsg137
I01
sg89
g7
sbsg76
g1122
sg130
Nsg69
(dp1190
sg89
g7
sbssg89
g7
sbsI140536282610896
g0
(g99
g2
Ntp1191
Rp1192
(dp1193
g52
I1
sg103
I2
sg104
g0
(g99
g2
Ntp1194
Rp1195
(dp1196
g52
I1
sg103
I2
sg104
g0
(g105
g2
Ntp1197
Rp1198
(dp1199
g52
I1
sg82
Nsg81
Nsg109
g0
(g48
g2
Ntp1200
Rp1201
(dp1202
g52
I1
sg53
g54
(g55
(I0
tp1203
g57
tp1204
Rp1205
(I1
(I2
tp1206
g64
I00
S'\x00\x00\x00\x00\x00\x00\xf0\x7f\x00\x00\x00\x00\x00\x00\xf0\x7f'
p1207
tp1208
bsg69
(dp1209
I140536282610768
g1198
ssg123
g54
(g55
(I0
tp1210
g57
tp1211
Rp1212
(I1
(I2
I2
tp1213
g64
I00
S'\x00\x00\x00\x00\x00\x00\x00\x00\x00\x00\x00\x00\x00\x00\x00\x00\x00\x00\x00\x00\x00\x00\xf0?\x00\x00\x00\x00\x00\x00\xf0?'
p1214
tp1215
bsg130
g54
(g55
(I0
tp1216
g57
tp1217
Rp1218
(I1
(I2
I2
tp1219
g64
I00
S'\x00\x00\x00\x00\x00\x00\x00\x00\x00\x00\x00\x00\x00\x00\x00\x00\x00\x00\x00\x00\x00\x00\xf0?\x00\x00\x00\x00\x00\x00\xf0?'
p1220
tp1221
bsg137
I01
sg89
g7
sbsg69
(dp1222
I140536282610832
g1195
ssg89
g7
sbsg176
I2
sg177
g0
(g77
g2
Ntp1223
Rp1224
(dp1225
g52
I2
sg81
Nsg82
g54
(g55
(I0
tp1226
g57
tp1227
Rp1228
(I1
(I3
I3
tp1229
g64
I00
S'\x00\x00\x00\x00\x00\x00\xf0?\x00\x00\x00\x00\x00\x00\x00\x00\x00\x00\x00\x00\x00\x00\x00\x00\x00\x00\x00\x00\x00\x00\x00\x00\x00\x00\x00\x00\x00\x00\xf0?\x00\x00\x00\x00\x00\x00\x00\x00\x00\x00\x00\x00\x00\x00\x00\x00\x00\x00\x00\x00\x00\x00\x00\x00\x00\x00\x00\x00\x00\x00\xf0?'
p1230
tp1231
bsg89
g7
sg69
(dp1232
I140536282610832
g1195
ssbsg69
(dp1233
I140536282610896
g1192
ssg89
g7
sbsg176
I2
sg177
g107
sg69
(dp1234
I140536282610960
g0
(g71
g2
Ntp1235
Rp1236
(dp1237
g52
I1
sg75
g0
(g48
g2
Ntp1238
Rp1239
(dp1240
g52
I1
sg53
g54
(g55
(I0
tp1241
g57
tp1242
Rp1243
(I1
(I2
tp1244
g64
I00
S'\x00\x00\x00\x00\x00\x00\xf0\x7f\x00\x00\x00\x00\x00\x00\xf0\x7f'
p1245
tp1246
bsg69
(dp1247
I140536282610960
g1236
ssg123
g54
(g55
(I0
tp1248
g57
tp1249
Rp1250
(I1
(I2
I2
tp1251
g64
I00
S'\x00\x00\x00\x00\x00\x00\x00\x00\x00\x00\x00\x00\x00\x00\x00\x00\x00\x00\x00\x00\x00\x00\xf0?\x00\x00\x00\x00\x00\x00\xf0?'
p1252
tp1253
bsg130
g54
(g55
(I0
tp1254
g57
tp1255
Rp1256
(I1
(I2
I2
tp1257
g64
I00
S'\x00\x00\x00\x00\x00\x00\x00\x00\x00\x00\x00\x00\x00\x00\x00\x00\x00\x00\x00\x00\x00\x00\xf0?\x00\x00\x00\x00\x00\x00\xf0?'
p1258
tp1259
bsg137
I01
sg89
g7
sbsg76
g1192
sg130
Nsg69
(dp1260
sg89
g7
sbssg89
g7
sbsI140536283070032
g0
(g99
g2
Ntp1261
Rp1262
(dp1263
g52
I1
sg103
I2
sg104
g0
(g99
g2
Ntp1264
Rp1265
(dp1266
g52
I1
sg103
I2
sg104
g0
(g105
g2
Ntp1267
Rp1268
(dp1269
g52
I1
sg82
Nsg81
Nsg109
g0
(g48
g2
Ntp1270
Rp1271
(dp1272
g52
I1
sg53
g54
(g55
(I0
tp1273
g57
tp1274
Rp1275
(I1
(I2
tp1276
g64
I00
S'\x00\x00\x00\x00\x00\x00\xf0\x7f\x00\x00\x00\x00\x00\x00\xf0\x7f'
p1277
tp1278
bsg69
(dp1279
I140536283069968
g1268
ssg123
g54
(g55
(I0
tp1280
g57
tp1281
Rp1282
(I1
(I2
I2
tp1283
g64
I00
S'\x00\x00\x00\x00\x00\x00\x00\x00\x00\x00\x00\x00\x00\x00\x00\x00\x00\x00\x00\x00\x00\x00\xf0?\x00\x00\x00\x00\x00\x00\xf0?'
p1284
tp1285
bsg130
g54
(g55
(I0
tp1286
g57
tp1287
Rp1288
(I1
(I2
I2
tp1289
g64
I00
S'\x00\x00\x00\x00\x00\x00\x00\x00\x00\x00\x00\x00\x00\x00\x00\x00\x00\x00\x00\x00\x00\x00\xf0?\x00\x00\x00\x00\x00\x00\xf0?'
p1290
tp1291
bsg137
I01
sg89
g7
sbsg69
(dp1292
I140536283069712
g1265
ssg89
g7
sbsg176
I2
sg177
g0
(g77
g2
Ntp1293
Rp1294
(dp1295
g52
I2
sg81
Nsg82
g54
(g55
(I0
tp1296
g57
tp1297
Rp1298
(I1
(I3
I3
tp1299
g64
I00
S'\x00\x00\x00\x00\x00\x00\xf0?\x00\x00\x00\x00\x00\x00\x00\x00\x00\x00\x00\x00\x00\x00\x00\x00\x00\x00\x00\x00\x00\x00\x00\x00\x00\x00\x00\x00\x00\x00\xf0?\x00\x00\x00\x00\x00\x00\x00\x00\x00\x00\x00\x00\x00\x00\x00\x00\x00\x00\x00\x00\x00\x00\x00\x00\x00\x00\x00\x00\x00\x00\xf0?'
p1300
tp1301
bsg89
g7
sg69
(dp1302
I140536283069712
g1265
ssbsg69
(dp1303
I140536283070032
g1262
ssg89
g7
sbsg176
I2
sg177
g107
sg69
(dp1304
I140536283070096
g0
(g71
g2
Ntp1305
Rp1306
(dp1307
g52
I1
sg75
g0
(g48
g2
Ntp1308
Rp1309
(dp1310
g52
I1
sg53
g54
(g55
(I0
tp1311
g57
tp1312
Rp1313
(I1
(I2
tp1314
g64
I00
S'\x00\x00\x00\x00\x00\x00\xf0\x7f\x00\x00\x00\x00\x00\x00\xf0\x7f'
p1315
tp1316
bsg69
(dp1317
I140536283070096
g1306
ssg123
g54
(g55
(I0
tp1318
g57
tp1319
Rp1320
(I1
(I2
I2
tp1321
g64
I00
S'\x00\x00\x00\x00\x00\x00\x00\x00\x00\x00\x00\x00\x00\x00\x00\x00\x00\x00\x00\x00\x00\x00\xf0?\x00\x00\x00\x00\x00\x00\xf0?'
p1322
tp1323
bsg130
g54
(g55
(I0
tp1324
g57
tp1325
Rp1326
(I1
(I2
I2
tp1327
g64
I00
S'\x00\x00\x00\x00\x00\x00\x00\x00\x00\x00\x00\x00\x00\x00\x00\x00\x00\x00\x00\x00\x00\x00\xf0?\x00\x00\x00\x00\x00\x00\xf0?'
p1328
tp1329
bsg137
I01
sg89
g7
sbsg76
g1262
sg130
Nsg69
(dp1330
sg89
g7
sbssg89
g7
sbsI140536282611344
g0
(g99
g2
Ntp1331
Rp1332
(dp1333
g52
I1
sg103
I2
sg104
g0
(g99
g2
Ntp1334
Rp1335
(dp1336
g52
I1
sg103
I2
sg104
g0
(g105
g2
Ntp1337
Rp1338
(dp1339
g52
I1
sg82
Nsg81
Nsg109
g0
(g48
g2
Ntp1340
Rp1341
(dp1342
g52
I1
sg53
g54
(g55
(I0
tp1343
g57
tp1344
Rp1345
(I1
(I2
tp1346
g64
I00
S'\x00\x00\x00\x00\x00\x00\xf0\x7f\x00\x00\x00\x00\x00\x00\xf0\x7f'
p1347
tp1348
bsg69
(dp1349
I140536282611216
g1338
ssg123
g54
(g55
(I0
tp1350
g57
tp1351
Rp1352
(I1
(I2
I2
tp1353
g64
I00
S'\x00\x00\x00\x00\x00\x00\x00\x00\x00\x00\x00\x00\x00\x00\x00\x00\x00\x00\x00\x00\x00\x00\xf0?\x00\x00\x00\x00\x00\x00\xf0?'
p1354
tp1355
bsg130
g54
(g55
(I0
tp1356
g57
tp1357
Rp1358
(I1
(I2
I2
tp1359
g64
I00
S'\x00\x00\x00\x00\x00\x00\x00\x00\x00\x00\x00\x00\x00\x00\x00\x00\x00\x00\x00\x00\x00\x00\xf0?\x00\x00\x00\x00\x00\x00\xf0?'
p1360
tp1361
bsg137
I01
sg89
g7
sbsg69
(dp1362
I140536282611280
g1335
ssg89
g7
sbsg176
I2
sg177
g0
(g77
g2
Ntp1363
Rp1364
(dp1365
g52
I2
sg81
Nsg82
g54
(g55
(I0
tp1366
g57
tp1367
Rp1368
(I1
(I3
I3
tp1369
g64
I00
S'\x00\x00\x00\x00\x00\x00\xf0?\x00\x00\x00\x00\x00\x00\x00\x00\x00\x00\x00\x00\x00\x00\x00\x00\x00\x00\x00\x00\x00\x00\x00\x00\x00\x00\x00\x00\x00\x00\xf0?\x00\x00\x00\x00\x00\x00\x00\x00\x00\x00\x00\x00\x00\x00\x00\x00\x00\x00\x00\x00\x00\x00\x00\x00\x00\x00\x00\x00\x00\x00\xf0?'
p1370
tp1371
bsg89
g7
sg69
(dp1372
I140536282611280
g1335
ssbsg69
(dp1373
I140536282611344
g1332
ssg89
g7
sbsg176
I2
sg177
g107
sg69
(dp1374
I140536282611408
g0
(g71
g2
Ntp1375
Rp1376
(dp1377
g52
I1
sg75
g0
(g48
g2
Ntp1378
Rp1379
(dp1380
g52
I1
sg53
g54
(g55
(I0
tp1381
g57
tp1382
Rp1383
(I1
(I2
tp1384
g64
I00
S'\x00\x00\x00\x00\x00\x00\xf0\x7f\x00\x00\x00\x00\x00\x00\xf0\x7f'
p1385
tp1386
bsg69
(dp1387
I140536282611408
g1376
ssg123
g54
(g55
(I0
tp1388
g57
tp1389
Rp1390
(I1
(I2
I2
tp1391
g64
I00
S'\x00\x00\x00\x00\x00\x00\x00\x00\x00\x00\x00\x00\x00\x00\x00\x00\x00\x00\x00\x00\x00\x00\xf0?\x00\x00\x00\x00\x00\x00\xf0?'
p1392
tp1393
bsg130
g54
(g55
(I0
tp1394
g57
tp1395
Rp1396
(I1
(I2
I2
tp1397
g64
I00
S'\x00\x00\x00\x00\x00\x00\x00\x00\x00\x00\x00\x00\x00\x00\x00\x00\x00\x00\x00\x00\x00\x00\xf0?\x00\x00\x00\x00\x00\x00\xf0?'
p1398
tp1399
bsg137
I01
sg89
g7
sbsg76
g1332
sg130
Nsg69
(dp1400
sg89
g7
sbssg89
g7
sbsI140536282981456
g265
sI140536282644112
g0
(g99
g2
Ntp1401
Rp1402
(dp1403
g52
I1
sg103
I2
sg104
g0
(g99
g2
Ntp1404
Rp1405
(dp1406
g52
I1
sg103
I2
sg104
g0
(g105
g2
Ntp1407
Rp1408
(dp1409
g52
I1
sg82
Nsg81
Nsg109
g0
(g48
g2
Ntp1410
Rp1411
(dp1412
g52
I1
sg53
g54
(g55
(I0
tp1413
g57
tp1414
Rp1415
(I1
(I2
tp1416
g64
I00
S'\x00\x00\x00\x00\x00\x00\xf0\x7f\x00\x00\x00\x00\x00\x00\xf0\x7f'
p1417
tp1418
bsg69
(dp1419
I140536282643984
g1408
ssg123
g54
(g55
(I0
tp1420
g57
tp1421
Rp1422
(I1
(I2
I2
tp1423
g64
I00
S'\x00\x00\x00\x00\x00\x00\x00\x00\x00\x00\x00\x00\x00\x00\x00\x00\x00\x00\x00\x00\x00\x00\xf0?\x00\x00\x00\x00\x00\x00\xf0?'
p1424
tp1425
bsg130
g54
(g55
(I0
tp1426
g57
tp1427
Rp1428
(I1
(I2
I2
tp1429
g64
I00
S'\x00\x00\x00\x00\x00\x00\x00\x00\x00\x00\x00\x00\x00\x00\x00\x00\x00\x00\x00\x00\x00\x00\xf0?\x00\x00\x00\x00\x00\x00\xf0?'
p1430
tp1431
bsg137
I01
sg89
g7
sbsg69
(dp1432
I140536282644048
g1405
ssg89
g7
sbsg176
I2
sg177
g0
(g77
g2
Ntp1433
Rp1434
(dp1435
g52
I2
sg81
Nsg82
g54
(g55
(I0
tp1436
g57
tp1437
Rp1438
(I1
(I3
I3
tp1439
g64
I00
S'\x00\x00\x00\x00\x00\x00\xf0?\x00\x00\x00\x00\x00\x00\x00\x00\x00\x00\x00\x00\x00\x00\x00\x00\x00\x00\x00\x00\x00\x00\x00\x00\x00\x00\x00\x00\x00\x00\xf0?\x00\x00\x00\x00\x00\x00\x00\x00\x00\x00\x00\x00\x00\x00\x00\x00\x00\x00\x00\x00\x00\x00\x00\x00\x00\x00\x00\x00\x00\x00\xf0?'
p1440
tp1441
bsg89
g7
sg69
(dp1442
I140536282644048
g1405
ssbsg69
(dp1443
I140536282644112
g1402
ssg89
g7
sbsg176
I2
sg177
g107
sg69
(dp1444
I140536282644176
g0
(g71
g2
Ntp1445
Rp1446
(dp1447
g52
I1
sg75
g0
(g48
g2
Ntp1448
Rp1449
(dp1450
g52
I1
sg53
g54
(g55
(I0
tp1451
g57
tp1452
Rp1453
(I1
(I2
tp1454
g64
I00
S'\x00\x00\x00\x00\x00\x00\xf0\x7f\x00\x00\x00\x00\x00\x00\xf0\x7f'
p1455
tp1456
bsg69
(dp1457
I140536282644176
g1446
ssg123
g54
(g55
(I0
tp1458
g57
tp1459
Rp1460
(I1
(I2
I2
tp1461
g64
I00
S'\x00\x00\x00\x00\x00\x00\x00\x00\x00\x00\x00\x00\x00\x00\x00\x00\x00\x00\x00\x00\x00\x00\xf0?\x00\x00\x00\x00\x00\x00\xf0?'
p1462
tp1463
bsg130
g54
(g55
(I0
tp1464
g57
tp1465
Rp1466
(I1
(I2
I2
tp1467
g64
I00
S'\x00\x00\x00\x00\x00\x00\x00\x00\x00\x00\x00\x00\x00\x00\x00\x00\x00\x00\x00\x00\x00\x00\xf0?\x00\x00\x00\x00\x00\x00\xf0?'
p1468
tp1469
bsg137
I01
sg89
g7
sbsg76
g1402
sg130
Nsg69
(dp1470
sg89
g7
sbssg89
g7
sbsI140536283033680
g0
(g270
g2
Ntp1471
Rp1472
(dp1473
g52
I1
sg82
Nsg220
g107
sg221
g0
(g280
g2
Ntp1474
Rp1475
(dp1476
g52
I1
sg81
Nsg89
g7
sg69
(dp1477
I140536283033680
g1472
ssbsg81
Nsg89
g7
sg69
(dp1478
sbsI140536282685584
g0
(g99
g2
Ntp1479
Rp1480
(dp1481
g52
I1
sg103
I2
sg104
g0
(g99
g2
Ntp1482
Rp1483
(dp1484
g52
I1
sg103
I2
sg104
g0
(g105
g2
Ntp1485
Rp1486
(dp1487
g52
I1
sg82
Nsg81
Nsg109
g0
(g48
g2
Ntp1488
Rp1489
(dp1490
g52
I1
sg53
g54
(g55
(I0
tp1491
g57
tp1492
Rp1493
(I1
(I2
tp1494
g64
I00
S'\x00\x00\x00\x00\x00\x00\xf0\x7f\x00\x00\x00\x00\x00\x00\xf0\x7f'
p1495
tp1496
bsg69
(dp1497
I140536282644432
g1486
ssg123
g54
(g55
(I0
tp1498
g57
tp1499
Rp1500
(I1
(I2
I2
tp1501
g64
I00
S'\x00\x00\x00\x00\x00\x00\x00\x00\x00\x00\x00\x00\x00\x00\x00\x00\x00\x00\x00\x00\x00\x00\xf0?\x00\x00\x00\x00\x00\x00\xf0?'
p1502
tp1503
bsg130
g54
(g55
(I0
tp1504
g57
tp1505
Rp1506
(I1
(I2
I2
tp1507
g64
I00
S'\x00\x00\x00\x00\x00\x00\x00\x00\x00\x00\x00\x00\x00\x00\x00\x00\x00\x00\x00\x00\x00\x00\xf0?\x00\x00\x00\x00\x00\x00\xf0?'
p1508
tp1509
bsg137
I01
sg89
g7
sbsg69
(dp1510
I140536282685520
g1483
ssg89
g7
sbsg176
I2
sg177
g0
(g77
g2
Ntp1511
Rp1512
(dp1513
g52
I2
sg81
Nsg82
g54
(g55
(I0
tp1514
g57
tp1515
Rp1516
(I1
(I3
I3
tp1517
g64
I00
S'\x00\x00\x00\x00\x00\x00\xf0?\x00\x00\x00\x00\x00\x00\x00\x00\x00\x00\x00\x00\x00\x00\x00\x00\x00\x00\x00\x00\x00\x00\x00\x00\x00\x00\x00\x00\x00\x00\xf0?\x00\x00\x00\x00\x00\x00\x00\x00\x00\x00\x00\x00\x00\x00\x00\x00\x00\x00\x00\x00\x00\x00\x00\x00\x00\x00\x00\x00\x00\x00\xf0?'
p1518
tp1519
bsg89
g7
sg69
(dp1520
I140536282685520
g1483
ssbsg69
(dp1521
I140536282685584
g1480
ssg89
g7
sbsg176
I2
sg177
g107
sg69
(dp1522
I140536282685648
g0
(g71
g2
Ntp1523
Rp1524
(dp1525
g52
I1
sg75
g0
(g48
g2
Ntp1526
Rp1527
(dp1528
g52
I1
sg53
g54
(g55
(I0
tp1529
g57
tp1530
Rp1531
(I1
(I2
tp1532
g64
I00
S'\x00\x00\x00\x00\x00\x00\xf0\x7f\x00\x00\x00\x00\x00\x00\xf0\x7f'
p1533
tp1534
bsg69
(dp1535
I140536282685648
g1524
ssg123
g54
(g55
(I0
tp1536
g57
tp1537
Rp1538
(I1
(I2
I2
tp1539
g64
I00
S'\x00\x00\x00\x00\x00\x00\x00\x00\x00\x00\x00\x00\x00\x00\x00\x00\x00\x00\x00\x00\x00\x00\xf0?\x00\x00\x00\x00\x00\x00\xf0?'
p1540
tp1541
bsg130
g54
(g55
(I0
tp1542
g57
tp1543
Rp1544
(I1
(I2
I2
tp1545
g64
I00
S'\x00\x00\x00\x00\x00\x00\x00\x00\x00\x00\x00\x00\x00\x00\x00\x00\x00\x00\x00\x00\x00\x00\xf0?\x00\x00\x00\x00\x00\x00\xf0?'
p1546
tp1547
bsg137
I01
sg89
g7
sbsg76
g1480
sg130
Nsg69
(dp1548
sg89
g7
sbssg89
g7
sbsI140536283033936
g0
(g270
g2
Ntp1549
Rp1550
(dp1551
g52
I1
sg82
Nsg220
g0
(g280
g2
Ntp1552
Rp1553
(dp1554
g52
I1
sg81
Nsg89
g7
sg69
(dp1555
I140536283033936
g1550
ssbsg221
g107
sg81
Nsg89
g7
sg69
(dp1556
sbsI140536282780048
g0
(g99
g2
Ntp1557
Rp1558
(dp1559
g52
I1
sg103
I2
sg104
g0
(g99
g2
Ntp1560
Rp1561
(dp1562
g52
I1
sg103
I2
sg104
g0
(g105
g2
Ntp1563
Rp1564
(dp1565
g52
I1
sg82
Nsg81
Nsg109
g0
(g48
g2
Ntp1566
Rp1567
(dp1568
g52
I1
sg53
g54
(g55
(I0
tp1569
g57
tp1570
Rp1571
(I1
(I2
tp1572
g64
I00
S'\x00\x00\x00\x00\x00\x00\xf0\x7f\x00\x00\x00\x00\x00\x00\xf0\x7f'
p1573
tp1574
bsg69
(dp1575
I140536282779920
g1564
ssg123
g54
(g55
(I0
tp1576
g57
tp1577
Rp1578
(I1
(I2
I2
tp1579
g64
I00
S'\x00\x00\x00\x00\x00\x00\x00\x00\x00\x00\x00\x00\x00\x00\x00\x00\x00\x00\x00\x00\x00\x00\xf0?\x00\x00\x00\x00\x00\x00\xf0?'
p1580
tp1581
bsg130
g54
(g55
(I0
tp1582
g57
tp1583
Rp1584
(I1
(I2
I2
tp1585
g64
I00
S'\x00\x00\x00\x00\x00\x00\x00\x00\x00\x00\x00\x00\x00\x00\x00\x00\x00\x00\x00\x00\x00\x00\xf0?\x00\x00\x00\x00\x00\x00\xf0?'
p1586
tp1587
bsg137
I01
sg89
g7
sbsg69
(dp1588
I140536282779984
g1561
ssg89
g7
sbsg176
I2
sg177
g0
(g77
g2
Ntp1589
Rp1590
(dp1591
g52
I2
sg81
Nsg82
g54
(g55
(I0
tp1592
g57
tp1593
Rp1594
(I1
(I3
I3
tp1595
g64
I00
S'\x00\x00\x00\x00\x00\x00\xf0?\x00\x00\x00\x00\x00\x00\x00\x00\x00\x00\x00\x00\x00\x00\x00\x00\x00\x00\x00\x00\x00\x00\x00\x00\x00\x00\x00\x00\x00\x00\xf0?\x00\x00\x00\x00\x00\x00\x00\x00\x00\x00\x00\x00\x00\x00\x00\x00\x00\x00\x00\x00\x00\x00\x00\x00\x00\x00\x00\x00\x00\x00\xf0?'
p1596
tp1597
bsg89
g7
sg69
(dp1598
I140536282779984
g1561
ssbsg69
(dp1599
I140536282780048
g1558
ssg89
g7
sbsg176
I2
sg177
g107
sg69
(dp1600
I140536282780112
g0
(g71
g2
Ntp1601
Rp1602
(dp1603
g52
I1
sg75
g0
(g48
g2
Ntp1604
Rp1605
(dp1606
g52
I1
sg53
g54
(g55
(I0
tp1607
g57
tp1608
Rp1609
(I1
(I2
tp1610
g64
I00
S'\x00\x00\x00\x00\x00\x00\xf0\x7f\x00\x00\x00\x00\x00\x00\xf0\x7f'
p1611
tp1612
bsg69
(dp1613
I140536282780112
g1602
ssg123
g54
(g55
(I0
tp1614
g57
tp1615
Rp1616
(I1
(I2
I2
tp1617
g64
I00
S'\x00\x00\x00\x00\x00\x00\x00\x00\x00\x00\x00\x00\x00\x00\x00\x00\x00\x00\x00\x00\x00\x00\xf0?\x00\x00\x00\x00\x00\x00\xf0?'
p1618
tp1619
bsg130
g54
(g55
(I0
tp1620
g57
tp1621
Rp1622
(I1
(I2
I2
tp1623
g64
I00
S'\x00\x00\x00\x00\x00\x00\x00\x00\x00\x00\x00\x00\x00\x00\x00\x00\x00\x00\x00\x00\x00\x00\xf0?\x00\x00\x00\x00\x00\x00\xf0?'
p1624
tp1625
bsg137
I01
sg89
g7
sbsg76
g1558
sg130
Nsg69
(dp1626
sg89
g7
sbssg89
g7
sbsI140536282983632
g0
(g270
g2
Ntp1627
Rp1628
(dp1629
g52
I1
sg82
Nsg220
g0
(g280
g2
Ntp1630
Rp1631
(dp1632
g52
I1
sg81
Nsg89
g7
sg69
(dp1633
I140536282983632
g1628
ssbsg221
g107
sg81
Nsg89
g7
sg69
(dp1634
sbssg89
g7
sbsg176
I2
sg177
g93
sg69
(dp1635
sg89
g7
sbsI140536283069520
g1044
sI140536283069584
g1048
ssbsI140536282641360
g300
sI140536283068432
g309
sI140536283067088
g345
sI140536283035792
g355
sI140536283066704
g336
sI140536282841360
g73
sI140536283035536
g364
sI140536283036816
g373
sI140536282608144
g400
sI140536283037072
g391
sI140536283068112
g327
sI140536282608400
g382
sI140536282641040
g318
ssbsg130
g54
(g55
(I0
tp1636
g57
tp1637
Rp1638
(I1
(I2
I2
tp1639
g64
I00
S'\x00\x00\x00\x00\x00\x00\x00\x00\x00\x00\x00\x00\x00\x00\x00\x00\x00\x00\x00\x00\x00\xc0\x92@\x00\x00\x00\x00\x00@\x8f@'
p1640
tp1641
bsg69
(dp1642
I140536283843920
g139
ssg89
g7
sbssg123
g54
(g55
(I0
tp1643
g57
tp1644
Rp1645
(I1
(I2
I2
tp1646
g64
I00
S'\x00\x00\x00\x00\x00\x00\x00\x00\x00\x00\x00\x00\x00\x00\x00\x00\x00\x00\x00\x00\x00\x00(@\x00\x00\x00\x00\x00\x00$@'
p1647
tp1648
bsg130
g54
(g55
(I0
tp1649
g57
tp1650
Rp1651
(I1
(I2
I2
tp1652
g64
I00
S'\x00\x00\x00\x00\x00\x00\x00\x00\x00\x00\x00\x00\x00\x00\x00\x00\x00\x00\x00\x00\x00\x00(@\x00\x00\x00\x00\x00\x00$@'
p1653
tp1654
bsg137
I01
sg89
g7
sbsS'_suptitle'
p1655
NsS'_align_xlabel_grp'
p1656
g0
(cmatplotlib.cbook
Grouper
p1657
g2
Ntp1658
Rp1659
(dp1660
S'_mapping'
p1661
(dp1662
sbsS'number'
p1663
I3
sS'callbacks'
p1664
g0
(cmatplotlib.cbook
CallbackRegistry
p1665
g2
Ntp1666
Rp1667
(dp1668
S'exception_handler'
p1669
cmatplotlib.cbook
_exception_printer
p1670
sbsS'_snap'
p1671
NsS'_tight'
p1672
I00
sS'_stale'
p1673
I01
sS'dpi_scale_trans'
p1674
g79
sS'_sticky_edges'
p1675
g0
(cmatplotlib.artist
_XYPair
p1676
c__builtin__
tuple
p1677
((lp1678
(lp1679
tp1680
tp1681
Rp1682
sS'_constrained'
p1683
I00
sS'patches'
p1684
(lp1685
sS'legends'
p1686
(lp1687
sS'suppressComposite'
p1688
NsS'_transformSet'
p1689
I00
sS'_alpha'
p1690
NsS'_axstack'
p1691
g0
(cmatplotlib.figure
AxesStack
p1692
g2
Ntp1693
Rp1694
(dp1695
S'_default'
p1696
NsS'_elements'
p1697
(lp1698
(((I1
I1
I1
tp1699
(ttp1700
(I1
g0
(cmatplotlib.axes._subplots
_PicklableSubplotClassConstructor
p1701
g2
Ntp1702
Rp1703
(cmatplotlib.axes._axes
Axes
p1704
tp1705
Rp1706
(dp1707
S'transLimits'
p1708
g260
sS'_get_patches_for_fill'
p1709
g0
(cmatplotlib.axes._base
_process_plot_var_args
p1710
g2
Ntp1711
Rp1712
(dp1713
Vaxes
p1714
g1706
sVcommand
p1715
Vfill
p1716
sbsS'_xcid'
p1717
I1
sg6
g7
sS'legend_'
p1718
NsS'_use_sticky_edges'
p1719
I01
sg18
(lp1720
sS'_frameon'
p1721
I01
sS'_autoscaleYon'
p1722
I00
sg20
I01
sg21
(lp1723
sg26
I01
sS'tables'
p1724
(lp1725
sg1684
(lp1726
sS'title'
p1727
g0
(cmatplotlib.text
Text
p1728
g2
Ntp1729
Rp1730
(dp1731
g6
g7
sg15
I01
sg14
g4
sg16
NsS'_fontproperties'
p1732
g0
(cmatplotlib.font_manager
FontProperties
p1733
g2
Ntp1734
Rp1735
(dp1736
S'_family'
p1737
(lp1738
Vsans-serif
p1739
asS'_file'
p1740
NsS'_variant'
p1741
S'normal'
p1742
sS'_slant'
p1743
g1742
sS'_size'
p1744
F14.399999999999999
sS'_weight'
p1745
g1742
sS'_stretch'
p1746
g1742
sbsg42
Nsg23
g24
sS'_multialignment'
p1747
Nsg26
I01
sg29
Nsg220
F1.0
sg221
F0.5
sg30
Nsg31
Nsg17
Nsg35
I00
sg36
I00
sg37
(dp1748
sS'_renderer'
p1749
Nsg39
I00
sS'_axes'
p1750
g1706
sg43
NsS'_url'
p1751
NsS'_rotation_mode'
p1752
Nsg40
Nsg1671
Nsg1673
I01
sS'_verticalalignment'
p1753
Vbaseline
p1754
sS'_text'
p1755
g7
sS'_bbox_patch'
p1756
Nsg1675
g0
(g1676
g1677
((lp1757
(lp1758
tp1759
tp1760
Rp1761
sg34
I0
sS'_rotation'
p1762
Nsg1689
I01
sg1690
NsS'_linespacing'
p1763
F1.2
sg76
g101
sS'_usetex'
p1764
I00
sS'_wrap'
p1765
I00
sS'_gid'
p1766
NsS'_color'
p1767
S'k'
p1768
sS'_horizontalalignment'
p1769
Vcenter
p1770
sg41
NsbsS'_current_image'
p1771
NsS'mouseover_set'
p1772
c__builtin__
set
p1773
((lp1774
tp1775
Rp1776
sg17
NsS'numRows'
p1777
I1
sS'collections'
p1778
(lp1779
g0
(cmatplotlib.collections
LineCollection
p1780
g2
Ntp1781
Rp1782
(dp1783
g6
V_nolegend_
p1784
sg15
I01
sg14
g4
sS'_linestyles'
p1785
(lp1786
(NNtp1787
asS'_offset_position'
p1788
Vscreen
p1789
sg16
Nsg42
NsS'callbacksSM'
p1790
g0
(g1665
g2
Ntp1791
Rp1792
(dp1793
g1669
g1670
sbsg23
NsS'_offsets'
p1794
g54
(g55
(I0
tp1795
g57
tp1796
Rp1797
(I1
(I1
I2
tp1798
g64
I00
S'\x00\x00\x00\x00\x00\x00\x00\x00\x00\x00\x00\x00\x00\x00\x00\x00'
p1799
tp1800
bsS'_paths'
p1801
(lp1802
g0
(cmatplotlib.path
Path
p1803
g2
Ntp1804
Rp1805
(dp1806
S'_should_simplify'
p1807
I00
sS'_codes'
p1808
NsS'_vertices'
p1809
g54
(g55
(I0
tp1810
g57
tp1811
Rp1812
(I1
(I2
I2
tp1813
g64
I00
S'`\x1cHwp\x89\xed?\xaa\xd5\xdf\xdbx\xcd\xec?r\x94\x14\xbb\x9ba\xf1?\xaa\xd5\xdf\xdbx\xcd\xec?'
p1814
tp1815
bsS'_readonly'
p1816
I00
sS'_simplify_threshold'
p1817
F0.1111111111111111
sS'_interpolation_steps'
p1818
I1
sS'_has_nonfinite'
p1819
I00
sbag0
(g1803
g2
Ntp1820
Rp1821
(dp1822
g1807
I00
sg1808
Nsg1809
g54
(g55
(I0
tp1823
g57
tp1824
Rp1825
(I1
(I2
I2
tp1826
g64
I00
S'\x81?\xe8\x83~=\xed?3\x99\xb0\r\x82S\xe9?fa\xd5\x026c\xf2?3\x99\xb0\r\x82S\xe9?'
p1827
tp1828
bsg1816
I00
sg1817
F0.1111111111111111
sg1818
I1
sg1819
I00
sbag0
(g1803
g2
Ntp1829
Rp1830
(dp1831
g1807
I00
sg1808
Nsg1809
g54
(g55
(I0
tp1832
g57
tp1833
Rp1834
(I1
(I2
I2
tp1835
g64
I00
S'W09&\xd6\xfd\xee?"\xdf\xd7\xfe\xb5\xd0\xea?\xef\xaa\xf4\xff\xd7L\xf3?"\xdf\xd7\xfe\xb5\xd0\xea?'
p1836
tp1837
bsg1816
I00
sg1817
F0.1111111111111111
sg1818
I1
sg1819
I00
sbag0
(g1803
g2
Ntp1838
Rp1839
(dp1840
g1807
I00
sg1808
Nsg1809
g54
(g55
(I0
tp1841
g57
tp1842
Rp1843
(I1
(I2
I2
tp1844
g64
I00
S'\xab\x95[\xa7\xa0_\xea?"\xa8`!\xc3t\xe4?WDY\xe9\xdeQ\xed?"\xa8`!\xc3t\xe4?'
p1845
tp1846
bsg1816
I00
sg1817
F0.1111111111111111
sg1818
I1
sg1819
I00
sbag0
(g1803
g2
Ntp1847
Rp1848
(dp1849
g1807
I00
sg1808
Nsg1809
g54
(g55
(I0
tp1850
g57
tp1851
Rp1852
(I1
(I2
I2
tp1853
g64
I00
S'\xaf\xfd\xbd\xd8#\xaa\xe8?\x8f*\xc0_p\xd7\xec?\xa7\x86%\xb9\xb8{\xea?\x8f*\xc0_p\xd7\xec?'
p1854
tp1855
bsg1816
I00
sg1817
F0.1111111111111111
sg1818
I1
sg1819
I00
sbag0
(g1803
g2
Ntp1856
Rp1857
(dp1858
g1807
I00
sg1808
Nsg1809
g54
(g55
(I0
tp1859
g57
tp1860
Rp1861
(I1
(I2
I2
tp1862
g64
I00
S')\xc4\x06},V\xe7?\x18\xb5\xfc\x1b\x12f\xec?\xc1Da\xeb\xea\xba\xea?\x18\xb5\xfc\x1b\x12f\xec?'
p1863
tp1864
bsg1816
I00
sg1817
F0.1111111111111111
sg1818
I1
sg1819
I00
sbag0
(g1803
g2
Ntp1865
Rp1866
(dp1867
g1807
I00
sg1808
Nsg1809
g54
(g55
(I0
tp1868
g57
tp1869
Rp1870
(I1
(I2
I2
tp1871
g64
I00
S'\xd8y\xea\x1b\xbb\xfa\xef?\x1d\xb94\xce \xa8\xed?\\\xc4,w*\x17\xf0?\x1d\xb94\xce \xa8\xed?'
p1872
tp1873
bsg1816
I00
sg1817
F0.1111111111111111
sg1818
I1
sg1819
I00
sbag0
(g1803
g2
Ntp1874
Rp1875
(dp1876
g1807
I00
sg1808
Nsg1809
g54
(g55
(I0
tp1877
g57
tp1878
Rp1879
(I1
(I2
I2
tp1880
g64
I00
S'p\xba\xe6\xf2\x92\x01\xe9?\x19\x01\xa7(#\xe0\xe4?\xca\xa55\xfb/\xbb\xe9?\x19\x01\xa7(#\xe0\xe4?'
p1881
tp1882
bsg1816
I00
sg1817
F0.1111111111111111
sg1818
I1
sg1819
I00
sbag0
(g1803
g2
Ntp1883
Rp1884
(dp1885
g1807
I00
sg1808
Nsg1809
g54
(g55
(I0
tp1886
g57
tp1887
Rp1888
(I1
(I2
I2
tp1889
g64
I00
S'\xdd%4\x80\x16\xf0\xea?\xcd\x02\xa3u\xbeL\xef?\x97O\xe4\xe9\xb0k\xf1?\xcd\x02\xa3u\xbeL\xef?'
p1890
tp1891
bsg1816
I00
sg1817
F0.1111111111111111
sg1818
I1
sg1819
I00
sbag0
(g1803
g2
Ntp1892
Rp1893
(dp1894
g1807
I00
sg1808
Nsg1809
g54
(g55
(I0
tp1895
g57
tp1896
Rp1897
(I1
(I2
I2
tp1898
g64
I00
S'i\xaa\xa6\t\x1dk\xec?~\xe0\x07~\xe0\x07\xee?\xf1\x1d\x9c\x0c\x95%\xef?~\xe0\x07~\xe0\x07\xee?'
p1899
tp1900
bsg1816
I00
sg1817
F0.1111111111111111
sg1818
I1
sg1819
I00
sbag0
(g1803
g2
Ntp1901
Rp1902
(dp1903
g1807
I00
sg1808
Nsg1809
g54
(g55
(I0
tp1904
g57
tp1905
Rp1906
(I1
(I2
I2
tp1907
g64
I00
S'\x80\x13\xf1\xf7-\xc3\xee?\x8ewT\xb3\xfe\x0c\xee?\xd6MXb\xac\x17\xf1?\x8ewT\xb3\xfe\x0c\xee?'
p1908
tp1909
bsg1816
I00
sg1817
F0.1111111111111111
sg1818
I1
sg1819
I00
sbag0
(g1803
g2
Ntp1910
Rp1911
(dp1912
g1807
I00
sg1808
Nsg1809
g54
(g55
(I0
tp1913
g57
tp1914
Rp1915
(I1
(I2
I2
tp1916
g64
I00
S'\x8eY\x12\x82\n9\xee?\xa3\x83\xed\x98\xf7\x16\xef?Z\x99\xd7\xea\x05\xc1\xf0?\xa3\x83\xed\x98\xf7\x16\xef?'
p1917
tp1918
bsg1816
I00
sg1817
F0.1111111111111111
sg1818
I1
sg1819
I00
sbag0
(g1803
g2
Ntp1919
Rp1920
(dp1921
g1807
I00
sg1808
Nsg1809
g54
(g55
(I0
tp1922
g57
tp1923
Rp1924
(I1
(I2
I2
tp1925
g64
I00
S'\x97*\xb8\xdc\xaf\x99\xeb?u\xef\x90\xa8"\xc4\xeb?\'\xbf\x95\x92\xca9\xee?u\xef\x90\xa8"\xc4\xeb?'
p1926
tp1927
bsg1816
I00
sg1817
F0.1111111111111111
sg1818
I1
sg1819
I00
sbag0
(g1803
g2
Ntp1928
Rp1929
(dp1930
g1807
I00
sg1808
Nsg1809
g54
(g55
(I0
tp1931
g57
tp1932
Rp1933
(I1
(I2
I2
tp1934
g64
I00
S'~N\xafu\xa5i\xea?J\x1b\xef\xa8f\xfd\xe9?V0y\xa3pD\xf0?J\x1b\xef\xa8f\xfd\xe9?'
p1935
tp1936
bsg1816
I00
sg1817
F0.1111111111111111
sg1818
I1
sg1819
I00
sbag0
(g1803
g2
Ntp1937
Rp1938
(dp1939
g1807
I00
sg1808
Nsg1809
g54
(g55
(I0
tp1940
g57
tp1941
Rp1942
(I1
(I2
I2
tp1943
g64
I00
S"%\x9f)\x8b\xf7!\xe5?\x9e\xcc\x87t'\xf3\xe1?g\xbfk;\xfd\xd7\xe8?\x9e\xcc\x87t'\xf3\xe1?"
p1944
tp1945
bsg1816
I00
sg1817
F0.1111111111111111
sg1818
I1
sg1819
I00
sbag0
(g1803
g2
Ntp1946
Rp1947
(dp1948
g1807
I00
sg1808
Nsg1809
g54
(g55
(I0
tp1949
g57
tp1950
Rp1951
(I1
(I2
I2
tp1952
g64
I00
S'`vh\xefJ}\xed?\x05\x82\xcbTc\xe9\xeb?\xc2\x80\xa6d\xdf:\xf1?\x05\x82\xcbTc\xe9\xeb?'
p1953
tp1954
bsg1816
I00
sg1817
F0.1111111111111111
sg1818
I1
sg1819
I00
sbag0
(g1803
g2
Ntp1955
Rp1956
(dp1957
g1807
I00
sg1808
Nsg1809
g54
(g55
(I0
tp1958
g57
tp1959
Rp1960
(I1
(I2
I2
tp1961
g64
I00
S'7\x82r\xaa=\x0c\xe4?\x91`\x13\xf4\xdf\x89\xea?\x89_\xe6\xfd\xb9\xe6\xec?\x91`\x13\xf4\xdf\x89\xea?'
p1962
tp1963
bsg1816
I00
sg1817
F0.1111111111111111
sg1818
I1
sg1819
I00
sbag0
(g1803
g2
Ntp1964
Rp1965
(dp1966
g1807
I00
sg1808
Nsg1809
g54
(g55
(I0
tp1967
g57
tp1968
Rp1969
(I1
(I2
I2
tp1970
g64
I00
S'!\x8a\xbb\xcb\x81\xa8\xe5?*w\xads_\x18\xe9?\x0f4\xb0*\x0b\x94\xe9?*w\xads_\x18\xe9?'
p1971
tp1972
bsg1816
I00
sg1817
F0.1111111111111111
sg1818
I1
sg1819
I00
sbag0
(g1803
g2
Ntp1973
Rp1974
(dp1975
g1807
I00
sg1808
Nsg1809
g54
(g55
(I0
tp1976
g57
tp1977
Rp1978
(I1
(I2
I2
tp1979
g64
I00
S'\xc6w@\x7f\xeb\x80\xe2?\xb1\xe8\xe5\x1c\x87\xe2\xe5?\x98\xde\x96\x91r\x80\xe6?\xb1\xe8\xe5\x1c\x87\xe2\xe5?'
p1980
tp1981
bsg1816
I00
sg1817
F0.1111111111111111
sg1818
I1
sg1819
I00
sbag0
(g1803
g2
Ntp1982
Rp1983
(dp1984
g1807
I00
sg1808
Nsg1809
g54
(g55
(I0
tp1985
g57
tp1986
Rp1987
(I1
(I2
I2
tp1988
g64
I00
S'(}\x89<kO\xe9?k\xbd\x1b_\xd8\xe5\xea?lA\xbbaJX\xf3?k\xbd\x1b_\xd8\xe5\xea?'
p1989
tp1990
bsg1816
I00
sg1817
F0.1111111111111111
sg1818
I1
sg1819
I00
sbag0
(g1803
g2
Ntp1991
Rp1992
(dp1993
g1807
I00
sg1808
Nsg1809
g54
(g55
(I0
tp1994
g57
tp1995
Rp1996
(I1
(I2
I2
tp1997
g64
I00
S'\xb3\x7f\x02\xc9\t\x1a\xe4?\xc0<\xb9L^\xa5\xe2?5yr7\xcd\xfe\xe9?\xc0<\xb9L^\xa5\xe2?'
p1998
tp1999
bsg1816
I00
sg1817
F0.1111111111111111
sg1818
I1
sg1819
I00
sbag0
(g1803
g2
Ntp2000
Rp2001
(dp2002
g1807
I00
sg1808
Nsg1809
g54
(g55
(I0
tp2003
g57
tp2004
Rp2005
(I1
(I2
I2
tp2006
g64
I00
S"6\xd7\xa1\xe5\x0e\xc3\xe8?\xf6'Bt&*\xef?j\xf6\xb2S\xc1d\xeb?\xf6'Bt&*\xef?"
p2007
tp2008
bsg1816
I00
sg1817
F0.1111111111111111
sg1818
I1
sg1819
I00
sbag0
(g1803
g2
Ntp2009
Rp2010
(dp2011
g1807
I00
sg1808
Nsg1809
g54
(g55
(I0
tp2012
g57
tp2013
Rp2014
(I1
(I2
I2
tp2015
g64
I00
S'\x91\xc6\x8a[T\xdb\xe4?P$\x8aH\xea_\xe8?\x7f?Saz\\\xeb?P$\x8aH\xea_\xe8?'
p2016
tp2017
bsg1816
I00
sg1817
F0.1111111111111111
sg1818
I1
sg1819
I00
sbag0
(g1803
g2
Ntp2018
Rp2019
(dp2020
g1807
I00
sg1808
Nsg1809
g54
(g55
(I0
tp2021
g57
tp2022
Rp2023
(I1
(I2
I2
tp2024
g64
I00
S'q\xff\xc8\x80\xb6\x8f\xe4?\xb8\xe9\x1b\xcfdP\xe4?\xff\xb8\x03\xc2}\xea\xe9?\xb8\xe9\x1b\xcfdP\xe4?'
p2025
tp2026
bsg1816
I00
sg1817
F0.1111111111111111
sg1818
I1
sg1819
I00
sbag0
(g1803
g2
Ntp2027
Rp2028
(dp2029
g1807
I00
sg1808
Nsg1809
g54
(g55
(I0
tp2030
g57
tp2031
Rp2032
(I1
(I2
I2
tp2033
g64
I00
S'\xd7\x9d\xe77\x1e\xd5\xea?\x9e\r\xee\xc5\x07\x88\xec?Qd\xab\xd7Z\x90\xef?\x9e\r\xee\xc5\x07\x88\xec?'
p2034
tp2035
bsg1816
I00
sg1817
F0.1111111111111111
sg1818
I1
sg1819
I00
sbag0
(g1803
g2
Ntp2036
Rp2037
(dp2038
g1807
I00
sg1808
Nsg1809
g54
(g55
(I0
tp2039
g57
tp2040
Rp2041
(I1
(I2
I2
tp2042
g64
I00
S'\xcaN]\xeb\xf6w\xe3?A\xd9U\x13Uv\xe5?z?\xd1\xad\xba\x1b\xe9?A\xd9U\x13Uv\xe5?'
p2043
tp2044
bsg1816
I00
sg1817
F0.1111111111111111
sg1818
I1
sg1819
I00
sbag0
(g1803
g2
Ntp2045
Rp2046
(dp2047
g1807
I00
sg1808
Nsg1809
g54
(g55
(I0
tp2048
g57
tp2049
Rp2050
(I1
(I2
I2
tp2051
g64
I00
S'\xf1A\x92=\xb5\xb9\xd9?\x1e\xfe{\xbf;#\xda?\xb4\x97%\xc6\xd2K\xe2?\x1e\xfe{\xbf;#\xda?'
p2052
tp2053
bsg1816
I00
sg1817
F0.1111111111111111
sg1818
I1
sg1819
I00
sbag0
(g1803
g2
Ntp2054
Rp2055
(dp2056
g1807
I00
sg1808
Nsg1809
g54
(g55
(I0
tp2057
g57
tp2058
Rp2059
(I1
(I2
I2
tp2060
g64
I00
S'l\x8c9\xd5fd\xed?6\xad\x07\x99\xbf\xb8\xed?\xf9\x10d\xc3\x01\xb1\xf0?6\xad\x07\x99\xbf\xb8\xed?'
p2061
tp2062
bsg1816
I00
sg1817
F0.1111111111111111
sg1818
I1
sg1819
I00
sbag0
(g1803
g2
Ntp2063
Rp2064
(dp2065
g1807
I00
sg1808
Nsg1809
g54
(g55
(I0
tp2066
g57
tp2067
Rp2068
(I1
(I2
I2
tp2069
g64
I00
S'\x92\x18 \xd7s7\xea?~\x89\x19v\xb5\xc5\xea?\xc4\xbe\xeay\x03\x97\xf1?~\x89\x19v\xb5\xc5\xea?'
p2070
tp2071
bsg1816
I00
sg1817
F0.1111111111111111
sg1818
I1
sg1819
I00
sbag0
(g1803
g2
Ntp2072
Rp2073
(dp2074
g1807
I00
sg1808
Nsg1809
g54
(g55
(I0
tp2075
g57
tp2076
Rp2077
(I1
(I2
I2
tp2078
g64
I00
S'\xde\xb5}\x85\xb0{\xdd?\xdfy\x9e\xe7y\x9e\xe7?\x0bO\x82[:&\xeb?\xdfy\x9e\xe7y\x9e\xe7?'
p2079
tp2080
bsg1816
I00
sg1817
F0.1111111111111111
sg1818
I1
sg1819
I00
sbasg26
I01
sS'_A'
p2081
NsS'_us_linestyles'
p2082
(lp2083
(NNtp2084
asg29
Nsg30
NsS'_original_edgecolor'
p2085
S'black'
p2086
sg17
Nsg35
I00
sS'_facecolors'
p2087
g54
(g55
(I0
tp2088
g57
tp2089
Rp2090
(I1
(I0
I4
tp2091
g64
I00
S''
p2092
tp2093
bsS'_uniform_offsets'
p2094
Nsg36
I00
sg1766
Nsg37
(dp2095
sS'_antialiaseds'
p2096
g54
(g55
(I0
tp2097
g57
tp2098
Rp2099
(I1
(I1
tp2100
g61
(S'b1'
p2101
I0
I1
tp2102
Rp2103
(I3
S'|'
p2104
NNNI-1
I-1
I0
tp2105
bI00
S'\x01'
p2106
tp2107
bsS'zorder'
p2108
I2
sg39
I00
sS'norm'
p2109
g0
(cmatplotlib.colors
Normalize
p2110
g2
Ntp2111
Rp2112
(dp2113
S'vmax'
p2114
NsS'clip'
p2115
I00
sS'vmin'
p2116
NsbsS'_hatch'
p2117
Nsg1673
I01
sS'_urls'
p2118
(lp2119
NasS'_edgecolors'
p2120
g54
(g55
(I0
tp2121
g57
tp2122
Rp2123
(I1
(I1
I4
tp2124
g64
I00
S'\x00\x00\x00\x00\x00\x00\x00\x00\x00\x00\x00\x00\x00\x00\x00\x00\x00\x00\x00\x00\x00\x00\x00\x00\x00\x00\x00\x00\x00\x00\xf0?'
p2125
tp2126
bsg43
g191
sS'_pickradius'
p2127
I5
sg40
NsS'_hatch_color'
p2128
(cnumpy.core.multiarray
scalar
p2129
(g64
S'\x00\x00\x00\x00\x00\x00\x00\x00'
p2130
tp2131
Rp2132
g2129
(g64
S'\x00\x00\x00\x00\x00\x00\x00\x00'
p2133
tp2134
Rp2135
g2129
(g64
S'\x00\x00\x00\x00\x00\x00\x00\x00'
p2136
tp2137
Rp2138
g2129
(g64
S'\x00\x00\x00\x00\x00\x00\xf0?'
p2139
tp2140
Rp2141
tp2142
sS'_original_facecolor'
p2143
Vnone
p2144
sS'update_dict'
p2145
(dp2146
Varray
p2147
I00
ssg1671
NsS'_joinstyle'
p2148
NsS'_linewidths'
p2149
g54
(g55
(I0
tp2150
g57
tp2151
Rp2152
(I1
(I1
tp2153
g64
I00
S'\x00\x00\x00\x00\x00\x00\xfc?'
p2154
tp2155
bsg1675
g0
(g1676
g1677
((lp2156
(lp2157
tp2158
tp2159
Rp2160
sg34
I0
sS'_is_stroked'
p2161
I01
sS'_is_filled'
p2162
I00
sg1689
I01
sg1690
Nsg76
g223
sS'colorbar'
p2163
NsS'_us_lw'
p2164
g2152
sS'cmap'
p2165
g0
(cmatplotlib.colors
ListedColormap
p2166
g2
Ntp2167
Rp2168
(dp2169
S'_i_bad'
p2170
I258
sS'_rgba_over'
p2171
NsS'name'
p2172
S'viridis'
p2173
sS'_i_under'
p2174
I256
sS'_i_over'
p2175
I257
sS'N'
p2176
I256
sS'colors'
p2177
(lp2178
(lp2179
F0.267004
aF0.004874
aF0.329415
aa(lp2180
F0.26851
aF0.009605
aF0.335427
aa(lp2181
F0.269944
aF0.014625
aF0.341379
aa(lp2182
F0.271305
aF0.019942
aF0.347269
aa(lp2183
F0.272594
aF0.025563
aF0.353093
aa(lp2184
F0.273809
aF0.031497
aF0.358853
aa(lp2185
F0.274952
aF0.037752
aF0.364543
aa(lp2186
F0.276022
aF0.044167
aF0.370164
aa(lp2187
F0.277018
aF0.050344
aF0.375715
aa(lp2188
F0.277941
aF0.056324
aF0.381191
aa(lp2189
F0.278791
aF0.062145
aF0.386592
aa(lp2190
F0.279566
aF0.067836
aF0.391917
aa(lp2191
F0.280267
aF0.073417
aF0.397163
aa(lp2192
F0.280894
aF0.078907
aF0.402329
aa(lp2193
F0.281446
aF0.08432
aF0.407414
aa(lp2194
F0.281924
aF0.089666
aF0.412415
aa(lp2195
F0.282327
aF0.094955
aF0.417331
aa(lp2196
F0.282656
aF0.100196
aF0.42216
aa(lp2197
F0.28291
aF0.105393
aF0.426902
aa(lp2198
F0.283091
aF0.110553
aF0.431554
aa(lp2199
F0.283197
aF0.11568
aF0.436115
aa(lp2200
F0.283229
aF0.120777
aF0.440584
aa(lp2201
F0.283187
aF0.125848
aF0.44496
aa(lp2202
F0.283072
aF0.130895
aF0.449241
aa(lp2203
F0.282884
aF0.13592
aF0.453427
aa(lp2204
F0.282623
aF0.140926
aF0.457517
aa(lp2205
F0.28229
aF0.145912
aF0.46151
aa(lp2206
F0.281887
aF0.150881
aF0.465405
aa(lp2207
F0.281412
aF0.155834
aF0.469201
aa(lp2208
F0.280868
aF0.160771
aF0.472899
aa(lp2209
F0.280255
aF0.165693
aF0.476498
aa(lp2210
F0.279574
aF0.170599
aF0.479997
aa(lp2211
F0.278826
aF0.17549
aF0.483397
aa(lp2212
F0.278012
aF0.180367
aF0.486697
aa(lp2213
F0.277134
aF0.185228
aF0.489898
aa(lp2214
F0.276194
aF0.190074
aF0.493001
aa(lp2215
F0.275191
aF0.194905
aF0.496005
aa(lp2216
F0.274128
aF0.199721
aF0.498911
aa(lp2217
F0.273006
aF0.20452
aF0.501721
aa(lp2218
F0.271828
aF0.209303
aF0.504434
aa(lp2219
F0.270595
aF0.214069
aF0.507052
aa(lp2220
F0.269308
aF0.218818
aF0.509577
aa(lp2221
F0.267968
aF0.223549
aF0.512008
aa(lp2222
F0.26658
aF0.228262
aF0.514349
aa(lp2223
F0.265145
aF0.232956
aF0.516599
aa(lp2224
F0.263663
aF0.237631
aF0.518762
aa(lp2225
F0.262138
aF0.242286
aF0.520837
aa(lp2226
F0.260571
aF0.246922
aF0.522828
aa(lp2227
F0.258965
aF0.251537
aF0.524736
aa(lp2228
F0.257322
aF0.25613
aF0.526563
aa(lp2229
F0.255645
aF0.260703
aF0.528312
aa(lp2230
F0.253935
aF0.265254
aF0.529983
aa(lp2231
F0.252194
aF0.269783
aF0.531579
aa(lp2232
F0.250425
aF0.27429
aF0.533103
aa(lp2233
F0.248629
aF0.278775
aF0.534556
aa(lp2234
F0.246811
aF0.283237
aF0.535941
aa(lp2235
F0.244972
aF0.287675
aF0.53726
aa(lp2236
F0.243113
aF0.292092
aF0.538516
aa(lp2237
F0.241237
aF0.296485
aF0.539709
aa(lp2238
F0.239346
aF0.300855
aF0.540844
aa(lp2239
F0.237441
aF0.305202
aF0.541921
aa(lp2240
F0.235526
aF0.309527
aF0.542944
aa(lp2241
F0.233603
aF0.313828
aF0.543914
aa(lp2242
F0.231674
aF0.318106
aF0.544834
aa(lp2243
F0.229739
aF0.322361
aF0.545706
aa(lp2244
F0.227802
aF0.326594
aF0.546532
aa(lp2245
F0.225863
aF0.330805
aF0.547314
aa(lp2246
F0.223925
aF0.334994
aF0.548053
aa(lp2247
F0.221989
aF0.339161
aF0.548752
aa(lp2248
F0.220057
aF0.343307
aF0.549413
aa(lp2249
F0.21813
aF0.347432
aF0.550038
aa(lp2250
F0.21621
aF0.351535
aF0.550627
aa(lp2251
F0.214298
aF0.355619
aF0.551184
aa(lp2252
F0.212395
aF0.359683
aF0.55171
aa(lp2253
F0.210503
aF0.363727
aF0.552206
aa(lp2254
F0.208623
aF0.367752
aF0.552675
aa(lp2255
F0.206756
aF0.371758
aF0.553117
aa(lp2256
F0.204903
aF0.375746
aF0.553533
aa(lp2257
F0.203063
aF0.379716
aF0.553925
aa(lp2258
F0.201239
aF0.38367
aF0.554294
aa(lp2259
F0.19943
aF0.387607
aF0.554642
aa(lp2260
F0.197636
aF0.391528
aF0.554969
aa(lp2261
F0.19586
aF0.395433
aF0.555276
aa(lp2262
F0.1941
aF0.399323
aF0.555565
aa(lp2263
F0.192357
aF0.403199
aF0.555836
aa(lp2264
F0.190631
aF0.407061
aF0.556089
aa(lp2265
F0.188923
aF0.41091
aF0.556326
aa(lp2266
F0.187231
aF0.414746
aF0.556547
aa(lp2267
F0.185556
aF0.41857
aF0.556753
aa(lp2268
F0.183898
aF0.422383
aF0.556944
aa(lp2269
F0.182256
aF0.426184
aF0.55712
aa(lp2270
F0.180629
aF0.429975
aF0.557282
aa(lp2271
F0.179019
aF0.433756
aF0.55743
aa(lp2272
F0.177423
aF0.437527
aF0.557565
aa(lp2273
F0.175841
aF0.44129
aF0.557685
aa(lp2274
F0.174274
aF0.445044
aF0.557792
aa(lp2275
F0.172719
aF0.448791
aF0.557885
aa(lp2276
F0.171176
aF0.45253
aF0.557965
aa(lp2277
F0.169646
aF0.456262
aF0.55803
aa(lp2278
F0.168126
aF0.459988
aF0.558082
aa(lp2279
F0.166617
aF0.463708
aF0.558119
aa(lp2280
F0.165117
aF0.467423
aF0.558141
aa(lp2281
F0.163625
aF0.471133
aF0.558148
aa(lp2282
F0.162142
aF0.474838
aF0.55814
aa(lp2283
F0.160665
aF0.47854
aF0.558115
aa(lp2284
F0.159194
aF0.482237
aF0.558073
aa(lp2285
F0.157729
aF0.485932
aF0.558013
aa(lp2286
F0.15627
aF0.489624
aF0.557936
aa(lp2287
F0.154815
aF0.493313
aF0.55784
aa(lp2288
F0.153364
aF0.497
aF0.557724
aa(lp2289
F0.151918
aF0.500685
aF0.557587
aa(lp2290
F0.150476
aF0.504369
aF0.55743
aa(lp2291
F0.149039
aF0.508051
aF0.55725
aa(lp2292
F0.147607
aF0.511733
aF0.557049
aa(lp2293
F0.14618
aF0.515413
aF0.556823
aa(lp2294
F0.144759
aF0.519093
aF0.556572
aa(lp2295
F0.143343
aF0.522773
aF0.556295
aa(lp2296
F0.141935
aF0.526453
aF0.555991
aa(lp2297
F0.140536
aF0.530132
aF0.555659
aa(lp2298
F0.139147
aF0.533812
aF0.555298
aa(lp2299
F0.13777
aF0.537492
aF0.554906
aa(lp2300
F0.136408
aF0.541173
aF0.554483
aa(lp2301
F0.135066
aF0.544853
aF0.554029
aa(lp2302
F0.133743
aF0.548535
aF0.553541
aa(lp2303
F0.132444
aF0.552216
aF0.553018
aa(lp2304
F0.131172
aF0.555899
aF0.552459
aa(lp2305
F0.129933
aF0.559582
aF0.551864
aa(lp2306
F0.128729
aF0.563265
aF0.551229
aa(lp2307
F0.127568
aF0.566949
aF0.550556
aa(lp2308
F0.126453
aF0.570633
aF0.549841
aa(lp2309
F0.125394
aF0.574318
aF0.549086
aa(lp2310
F0.124395
aF0.578002
aF0.548287
aa(lp2311
F0.123463
aF0.581687
aF0.547445
aa(lp2312
F0.122606
aF0.585371
aF0.546557
aa(lp2313
F0.121831
aF0.589055
aF0.545623
aa(lp2314
F0.121148
aF0.592739
aF0.544641
aa(lp2315
F0.120565
aF0.596422
aF0.543611
aa(lp2316
F0.120092
aF0.600104
aF0.54253
aa(lp2317
F0.119738
aF0.603785
aF0.5414
aa(lp2318
F0.119512
aF0.607464
aF0.540218
aa(lp2319
F0.119423
aF0.611141
aF0.538982
aa(lp2320
F0.119483
aF0.614817
aF0.537692
aa(lp2321
F0.119699
aF0.61849
aF0.536347
aa(lp2322
F0.120081
aF0.622161
aF0.534946
aa(lp2323
F0.120638
aF0.625828
aF0.533488
aa(lp2324
F0.12138
aF0.629492
aF0.531973
aa(lp2325
F0.122312
aF0.633153
aF0.530398
aa(lp2326
F0.123444
aF0.636809
aF0.528763
aa(lp2327
F0.12478
aF0.640461
aF0.527068
aa(lp2328
F0.126326
aF0.644107
aF0.525311
aa(lp2329
F0.128087
aF0.647749
aF0.523491
aa(lp2330
F0.130067
aF0.651384
aF0.521608
aa(lp2331
F0.132268
aF0.655014
aF0.519661
aa(lp2332
F0.134692
aF0.658636
aF0.517649
aa(lp2333
F0.137339
aF0.662252
aF0.515571
aa(lp2334
F0.14021
aF0.665859
aF0.513427
aa(lp2335
F0.143303
aF0.669459
aF0.511215
aa(lp2336
F0.146616
aF0.67305
aF0.508936
aa(lp2337
F0.150148
aF0.676631
aF0.506589
aa(lp2338
F0.153894
aF0.680203
aF0.504172
aa(lp2339
F0.157851
aF0.683765
aF0.501686
aa(lp2340
F0.162016
aF0.687316
aF0.499129
aa(lp2341
F0.166383
aF0.690856
aF0.496502
aa(lp2342
F0.170948
aF0.694384
aF0.493803
aa(lp2343
F0.175707
aF0.6979
aF0.491033
aa(lp2344
F0.180653
aF0.701402
aF0.488189
aa(lp2345
F0.185783
aF0.704891
aF0.485273
aa(lp2346
F0.19109
aF0.708366
aF0.482284
aa(lp2347
F0.196571
aF0.711827
aF0.479221
aa(lp2348
F0.202219
aF0.715272
aF0.476084
aa(lp2349
F0.20803
aF0.718701
aF0.472873
aa(lp2350
F0.214
aF0.722114
aF0.469588
aa(lp2351
F0.220124
aF0.725509
aF0.466226
aa(lp2352
F0.226397
aF0.728888
aF0.462789
aa(lp2353
F0.232815
aF0.732247
aF0.459277
aa(lp2354
F0.239374
aF0.735588
aF0.455688
aa(lp2355
F0.24607
aF0.73891
aF0.452024
aa(lp2356
F0.252899
aF0.742211
aF0.448284
aa(lp2357
F0.259857
aF0.745492
aF0.444467
aa(lp2358
F0.266941
aF0.748751
aF0.440573
aa(lp2359
F0.274149
aF0.751988
aF0.436601
aa(lp2360
F0.281477
aF0.755203
aF0.432552
aa(lp2361
F0.288921
aF0.758394
aF0.428426
aa(lp2362
F0.296479
aF0.761561
aF0.424223
aa(lp2363
F0.304148
aF0.764704
aF0.419943
aa(lp2364
F0.311925
aF0.767822
aF0.415586
aa(lp2365
F0.319809
aF0.770914
aF0.411152
aa(lp2366
F0.327796
aF0.77398
aF0.40664
aa(lp2367
F0.335885
aF0.777018
aF0.402049
aa(lp2368
F0.344074
aF0.780029
aF0.397381
aa(lp2369
F0.35236
aF0.783011
aF0.392636
aa(lp2370
F0.360741
aF0.785964
aF0.387814
aa(lp2371
F0.369214
aF0.788888
aF0.382914
aa(lp2372
F0.377779
aF0.791781
aF0.377939
aa(lp2373
F0.386433
aF0.794644
aF0.372886
aa(lp2374
F0.395174
aF0.797475
aF0.367757
aa(lp2375
F0.404001
aF0.800275
aF0.362552
aa(lp2376
F0.412913
aF0.803041
aF0.357269
aa(lp2377
F0.421908
aF0.805774
aF0.35191
aa(lp2378
F0.430983
aF0.808473
aF0.346476
aa(lp2379
F0.440137
aF0.811138
aF0.340967
aa(lp2380
F0.449368
aF0.813768
aF0.335384
aa(lp2381
F0.458674
aF0.816363
aF0.329727
aa(lp2382
F0.468053
aF0.818921
aF0.323998
aa(lp2383
F0.477504
aF0.821444
aF0.318195
aa(lp2384
F0.487026
aF0.823929
aF0.312321
aa(lp2385
F0.496615
aF0.826376
aF0.306377
aa(lp2386
F0.506271
aF0.828786
aF0.300362
aa(lp2387
F0.515992
aF0.831158
aF0.294279
aa(lp2388
F0.525776
aF0.833491
aF0.288127
aa(lp2389
F0.535621
aF0.835785
aF0.281908
aa(lp2390
F0.545524
aF0.838039
aF0.275626
aa(lp2391
F0.555484
aF0.840254
aF0.269281
aa(lp2392
F0.565498
aF0.84243
aF0.262877
aa(lp2393
F0.575563
aF0.844566
aF0.256415
aa(lp2394
F0.585678
aF0.846661
aF0.249897
aa(lp2395
F0.595839
aF0.848717
aF0.243329
aa(lp2396
F0.606045
aF0.850733
aF0.236712
aa(lp2397
F0.616293
aF0.852709
aF0.230052
aa(lp2398
F0.626579
aF0.854645
aF0.223353
aa(lp2399
F0.636902
aF0.856542
aF0.21662
aa(lp2400
F0.647257
aF0.8584
aF0.209861
aa(lp2401
F0.657642
aF0.860219
aF0.203082
aa(lp2402
F0.668054
aF0.861999
aF0.196293
aa(lp2403
F0.678489
aF0.863742
aF0.189503
aa(lp2404
F0.688944
aF0.865448
aF0.182725
aa(lp2405
F0.699415
aF0.867117
aF0.175971
aa(lp2406
F0.709898
aF0.868751
aF0.169257
aa(lp2407
F0.720391
aF0.87035
aF0.162603
aa(lp2408
F0.730889
aF0.871916
aF0.156029
aa(lp2409
F0.741388
aF0.873449
aF0.149561
aa(lp2410
F0.751884
aF0.874951
aF0.143228
aa(lp2411
F0.762373
aF0.876424
aF0.137064
aa(lp2412
F0.772852
aF0.877868
aF0.131109
aa(lp2413
F0.783315
aF0.879285
aF0.125405
aa(lp2414
F0.79376
aF0.880678
aF0.120005
aa(lp2415
F0.804182
aF0.882046
aF0.114965
aa(lp2416
F0.814576
aF0.883393
aF0.110347
aa(lp2417
F0.82494
aF0.88472
aF0.106217
aa(lp2418
F0.83527
aF0.886029
aF0.102646
aa(lp2419
F0.845561
aF0.887322
aF0.099702
aa(lp2420
F0.85581
aF0.888601
aF0.097452
aa(lp2421
F0.866013
aF0.889868
aF0.095953
aa(lp2422
F0.876168
aF0.891125
aF0.09525
aa(lp2423
F0.886271
aF0.892374
aF0.095374
aa(lp2424
F0.89632
aF0.893616
aF0.096335
aa(lp2425
F0.906311
aF0.894855
aF0.098125
aa(lp2426
F0.916242
aF0.896091
aF0.100717
aa(lp2427
F0.926106
aF0.89733
aF0.104071
aa(lp2428
F0.935904
aF0.89857
aF0.108131
aa(lp2429
F0.945636
aF0.899815
aF0.112838
aa(lp2430
F0.9553
aF0.901065
aF0.118128
aa(lp2431
F0.964894
aF0.902323
aF0.123941
aa(lp2432
F0.974417
aF0.90359
aF0.130215
aa(lp2433
F0.983868
aF0.904867
aF0.136897
aa(lp2434
F0.993248
aF0.906157
aF0.143936
aasS'_rgba_under'
p2435
NsS'_rgba_bad'
p2436
(F0.0
F0.0
F0.0
F0.0
tp2437
sS'monochrome'
p2438
I00
sS'colorbar_extend'
p2439
I00
sS'_isinit'
p2440
I00
sbsS'_capstyle'
p2441
Nsg1751
Nsg31
Nsg1750
g1706
sg41
Nsbag0
(g1780
g2
Ntp2442
Rp2443
(dp2444
g6
g1784
sg15
I01
sg14
g4
sg1785
(lp2445
(NNtp2446
asg1788
g1789
sg16
Nsg42
Nsg1790
g0
(g1665
g2
Ntp2447
Rp2448
(dp2449
g1669
g1670
sbsg23
Nsg1794
g54
(g55
(I0
tp2450
g57
tp2451
Rp2452
(I1
(I1
I2
tp2453
g64
I00
S'\x00\x00\x00\x00\x00\x00\x00\x00\x00\x00\x00\x00\x00\x00\x00\x00'
p2454
tp2455
bsg1801
(lp2456
g0
(g1803
g2
Ntp2457
Rp2458
(dp2459
g1807
I00
sg1808
Nsg1809
g54
(g55
(I0
tp2460
g57
tp2461
Rp2462
(I1
(I2
I2
tp2463
g64
I00
S'QQ\\\xfb)\x13\xf0?V\xf4\x1e\xfaF:\xeb?QQ\\\xfb)\x13\xf0?\xfe\xb6\xa0\xbd\xaa`\xee?'
p2464
tp2465
bsg1816
I00
sg1817
F0.1111111111111111
sg1818
I1
sg1819
I00
sbag0
(g1803
g2
Ntp2466
Rp2467
(dp2468
g1807
I00
sg1808
Nsg1809
g54
(g55
(I0
tp2469
g57
tp2470
Rp2471
(I1
(I2
I2
tp2472
g64
I00
S'\x93\xc0d\xa2\xfa\x80\xf0?\xdf\x01\xfd2:7\xe7?\x93\xc0d\xa2\xfa\x80\xf0?\x870d\xe8\xc9o\xeb?'
p2473
tp2474
bsg1816
I00
sg1817
F0.1111111111111111
sg1818
I1
sg1819
I00
sbag0
(g1803
g2
Ntp2475
Rp2476
(dp2477
g1807
I00
sg1808
Nsg1809
g54
(g55
(I0
tp2478
g57
tp2479
Rp2480
(I1
(I2
I2
tp2481
g64
I00
S'\x8d\xa1\x88\x89\xe1e\xf1?\x88Vx\xa4\xd6\x84\xe6?\x8d\xa1\x88\x89\xe1e\xf1?\xbcg7Y\x95\x1c\xef?'
p2482
tp2483
bsg1816
I00
sg1817
F0.1111111111111111
sg1818
I1
sg1819
I00
sbag0
(g1803
g2
Ntp2484
Rp2485
(dp2486
g1807
I00
sg1808
Nsg1809
g54
(g55
(I0
tp2487
g57
tp2488
Rp2489
(I1
(I2
I2
tp2490
g64
I00
S'\x01mZ\xc8\xbf\xd8\xeb?\xa2|\xfe;\xa6\x0e\xe3?\x01mZ\xc8\xbf\xd8\xeb?\xa2\xd3\xc2\x06\xe0\xda\xe5?'
p2491
tp2492
bsg1816
I00
sg1817
F0.1111111111111111
sg1818
I1
sg1819
I00
sbag0
(g1803
g2
Ntp2493
Rp2494
(dp2495
g1807
I00
sg1808
Nsg1809
g54
(g55
(I0
tp2496
g57
tp2497
Rp2498
(I1
(I2
I2
tp2499
g64
I00
S'+\xc2\xf1H\xee\x92\xe9?\xe4\xba\xce\xea\x1f\x18\xeb?+\xc2\xf1H\xee\x92\xe9?:\x9a\xb1\xd4\xc0\x96\xee?'
p2500
tp2501
bsg1816
I00
sg1817
F0.1111111111111111
sg1818
I1
sg1819
I00
sbag0
(g1803
g2
Ntp2502
Rp2503
(dp2504
g1807
I00
sg1808
Nsg1809
g54
(g55
(I0
tp2505
g57
tp2506
Rp2507
(I1
(I2
I2
tp2508
g64
I00
S'u\x044\xb4\x8b\x08\xe9?,\xaf=YW`\xea?u\x044\xb4\x8b\x08\xe9?\x04\xbb\xbb\xde\xcck\xee?'
p2509
tp2510
bsg1816
I00
sg1817
F0.1111111111111111
sg1818
I1
sg1819
I00
sbag0
(g1803
g2
Ntp2511
Rp2512
(dp2513
g1807
I00
sg1808
Nsg1809
g54
(g55
(I0
tp2514
g57
tp2515
Rp2516
(I1
(I2
I2
tp2517
g64
I00
S'\xa4\x00\x91\x02D\n\xf0?\xf3\xe9U+\xb7\xbe\xec?\xa4\x00\x91\x02D\n\xf0?G\x88\x13q\x8a\x91\xee?'
p2518
tp2519
bsg1816
I00
sg1817
F0.1111111111111111
sg1818
I1
sg1819
I00
sbag0
(g1803
g2
Ntp2520
Rp2521
(dp2522
g1807
I00
sg1808
Nsg1809
g54
(g55
(I0
tp2523
g57
tp2524
Rp2525
(I1
(I2
I2
tp2526
g64
I00
S'\x1d0\x0ewa^\xe9?{0\x8a\x88\xdd\xd6\xe3?\x1d0\x0ewa^\xe9?\xb7\xd1\xc3\xc8h\xe9\xe5?'
p2527
tp2528
bsg1816
I00
sg1817
F0.1111111111111111
sg1818
I1
sg1819
I00
sbag0
(g1803
g2
Ntp2529
Rp2530
(dp2531
g1807
I00
sg1808
Nsg1809
g54
(g55
(I0
tp2532
g57
tp2533
Rp2534
(I1
(I2
I2
tp2535
g64
I00
S'\x86b\xfe)\xbc\xe3\xee?\x94\x98\xdb|\x13\xb2\xeb?\x86b\xfe)\xbc\xe3\xee?\x8365\xb7\xb4s\xf1?'
p2536
tp2537
bsg1816
I00
sg1817
F0.1111111111111111
sg1818
I1
sg1819
I00
sbag0
(g1803
g2
Ntp2538
Rp2539
(dp2540
g1807
I00
sg1808
Nsg1809
g54
(g55
(I0
tp2541
g57
tp2542
Rp2543
(I1
(I2
I2
tp2544
g64
I00
S'-d!\x0bY\xc8\xed?|\xa8\x18\x02\xaf\xcc\xec?-d!\x0bY\xc8\xed?\x80\x18\xf7\xf9\x11C\xef?'
p2545
tp2546
bsg1816
I00
sg1817
F0.1111111111111111
sg1818
I1
sg1819
I00
sbag0
(g1803
g2
Ntp2547
Rp2548
(dp2549
g1807
I00
sg1808
Nsg1809
g54
(g55
(I0
tp2550
g57
tp2551
Rp2552
(I1
(I2
I2
tp2553
g64
I00
S'\xcbk(\xaf\xa1<\xf0?g\x13k\xc1\xa5D\xec?\xcbk(\xaf\xa1<\xf0?\xb5\xdb=\xa5W\xd5\xef?'
p2554
tp2555
bsg1816
I00
sg1817
F0.1111111111111111
sg1818
I1
sg1819
I00
sbag0
(g1803
g2
Ntp2556
Rp2557
(dp2558
g1807
I00
sg1808
Nsg1809
g54
(g55
(I0
tp2559
g57
tp2560
Rp2561
(I1
(I2
I2
tp2562
g64
I00
S'!\xc6\xe0+\x8b\xdd\xef?c\xc2\x19 \x12a\xed?!\xc6\xe0+\x8b\xdd\xef?q\xa2\xe0\x88nf\xf0?'
p2563
tp2564
bsg1816
I00
sg1817
F0.1111111111111111
sg1818
I1
sg1819
I00
sbag0
(g1803
g2
Ntp2565
Rp2566
(dp2567
g1807
I00
sg1808
Nsg1809
g54
(g55
(I0
tp2568
g57
tp2569
Rp2570
(I1
(I2
I2
tp2571
g64
I00
S'\xdf\xf4\xa67\xbd\xe9\xec?VC3\xd7\xaaP\xea?\xdf\xf4\xa67\xbd\xe9\xec?\x94\x9b\xeey\x9a7\xed?'
p2572
tp2573
bsg1816
I00
sg1817
F0.1111111111111111
sg1818
I1
sg1819
I00
sbag0
(g1803
g2
Ntp2574
Rp2575
(dp2576
g1807
I00
sg1808
Nsg1809
g54
(g55
(I0
tp2577
g57
tp2578
Rp2579
(I1
(I2
I2
tp2580
g64
I00
S'\x95\xd7P^Cy\xed?\x12\'!\xdf1\xd8\xe7?\x95\xd7P^Cy\xed?\x82\x0f\xbdr\x9b"\xec?'
p2581
tp2582
bsg1816
I00
sg1817
F0.1111111111111111
sg1818
I1
sg1819
I00
sbag0
(g1803
g2
Ntp2583
Rp2584
(dp2585
g1807
I00
sg1808
Nsg1809
g54
(g55
(I0
tp2586
g57
tp2587
Rp2588
(I1
(I2
I2
tp2589
g64
I00
S'F\xafJc\xfa\xfc\xe6?h&"_\x14h\xe0?F\xafJc\xfa\xfc\xe6?\xd4r\xed\x89:~\xe3?'
p2590
tp2591
bsg1816
I00
sg1817
F0.1111111111111111
sg1818
I1
sg1819
I00
sbag0
(g1803
g2
Ntp2592
Rp2593
(dp2594
g1807
I00
sg1808
Nsg1809
g54
(g55
(I0
tp2595
g57
tp2596
Rp2597
(I1
(I2
I2
tp2598
g64
I00
S'\xf2\xbbZ\xdc\x84\xf9\xef?\xc5\xacR\x8b|\xda\xe8?\xf2\xbbZ\xdc\x84\xf9\xef?EWD\x1eJ\xf8\xee?'
p2599
tp2600
bsg1816
I00
sg1817
F0.1111111111111111
sg1818
I1
sg1819
I00
sbag0
(g1803
g2
Ntp2601
Rp2602
(dp2603
g1807
I00
sg1808
Nsg1809
g54
(g55
(I0
tp2604
g57
tp2605
Rp2606
(I1
(I2
I2
tp2607
g64
I00
S'\xe0p,\xd4{y\xe8?\x8fJv\xb2\xdd5\xe6?\xe0p,\xd4{y\xe8?\x93v\xb05\xe2\xdd\xee?'
p2608
tp2609
bsg1816
I00
sg1817
F0.1111111111111111
sg1818
I1
sg1819
I00
sbag0
(g1803
g2
Ntp2610
Rp2611
(dp2612
g1807
I00
sg1808
Nsg1809
g54
(g55
(I0
tp2613
g57
tp2614
Rp2615
(I1
(I2
I2
tp2616
g64
I00
S'\x18\xdf5{F\x9e\xe7?56:\xea\x99`\xe5?\x18\xdf5{F\x9e\xe7?\x1f\xb8 \xfd$\xd0\xec?'
p2617
tp2618
bsg1816
I00
sg1817
F0.1111111111111111
sg1818
I1
sg1819
I00
sbag0
(g1803
g2
Ntp2619
Rp2620
(dp2621
g1807
I00
sg1808
Nsg1809
g54
(g55
(I0
tp2622
g57
tp2623
Rp2624
(I1
(I2
I2
tp2625
g64
I00
S'/\xabk\x08\xaf\x80\xe4?,E\xd2\x94\xa7L\xe3?/\xabk\x08\xaf\x80\xe4?6\x8c\xf9\xa4fx\xe8?'
p2626
tp2627
bsg1816
I00
sg1817
F0.1111111111111111
sg1818
I1
sg1819
I00
sbag0
(g1803
g2
Ntp2628
Rp2629
(dp2630
g1807
I00
sg1808
Nsg1809
g54
(g55
(I0
tp2631
g57
tp2632
Rp2633
(I1
(I2
I2
tp2634
g64
I00
S'\x00\x00\x00\x00\x00\x00\xf0?~8!\x86\x9b \xe5?\x00\x00\x00\x00\x00\x00\xf0?,!\x0b\x9c\x8aU\xf0?'
p2635
tp2636
bsg1816
I00
sg1817
F0.1111111111111111
sg1818
I1
sg1819
I00
sbag0
(g1803
g2
Ntp2637
Rp2638
(dp2639
g1807
I00
sg1808
Nsg1809
g54
(g55
(I0
tp2640
g57
tp2641
Rp2642
(I1
(I2
I2
tp2643
g64
I00
S't|:\x80k\x0c\xe7?z\x1b\xbc5*V\xe0?t|:\x80k\x0c\xe7?\x06^\xb6c\x92\xf4\xe4?'
p2644
tp2645
bsg1816
I00
sg1817
F0.1111111111111111
sg1818
I1
sg1819
I00
sbag0
(g1803
g2
Ntp2646
Rp2647
(dp2648
g1807
I00
sg1808
Nsg1809
g54
(g55
(I0
tp2649
g57
tp2650
Rp2651
(I1
(I2
I2
tp2652
g64
I00
S'\xd0f\xaa\x1c\xe8\x13\xea?\x97\x0e\xe0Z\xa0\xa0\xe8?\xd0f\xaa\x1c\xe8\x13\xea?\xaa \xd2F\xd6\xd9\xf2?'
p2653
tp2654
bsg1816
I00
sg1817
F0.1111111111111111
sg1818
I1
sg1819
I00
sbag0
(g1803
g2
Ntp2655
Rp2656
(dp2657
g1807
I00
sg1808
Nsg1809
g54
(g55
(I0
tp2658
g57
tp2659
Rp2660
(I1
(I2
I2
tp2661
g64
I00
S'\x08\x03o^\xe7\x1b\xe8?N\xf0\x1c\x00.\xa9\xe4?\x08\x03o^\xe7\x1b\xe8?RX\xf7\x90\xa6\x16\xec?'
p2662
tp2663
bsg1816
I00
sg1817
F0.1111111111111111
sg1818
I1
sg1819
I00
sbag0
(g1803
g2
Ntp2664
Rp2665
(dp2666
g1807
I00
sg1808
Nsg1809
g54
(g55
(I0
tp2667
g57
tp2668
Rp2669
(I1
(I2
I2
tp2670
g64
I00
S'8\\f!\x1a=\xe7?\xd1\xf1\xd4\xde\xcci\xe1?8\\f!\x1a=\xe7?\x9f\xe1b\xbf\xfc6\xe7?'
p2671
tp2672
bsg1816
I00
sg1817
F0.1111111111111111
sg1818
I1
sg1819
I00
sbag0
(g1803
g2
Ntp2673
Rp2674
(dp2675
g1807
I00
sg1808
Nsg1809
g54
(g55
(I0
tp2676
g57
tp2677
Rp2678
(I1
(I2
I2
tp2679
g64
I00
S'\x14\x81\xc9\x87\xbc2\xed?\x88\xcf\xc2\xbd\x14Q\xea?\x14\x81\xc9\x87\xbc2\xed?\xb4K\x19\xce\xfa\xbe\xee?'
p2680
tp2681
bsg1816
I00
sg1817
F0.1111111111111111
sg1818
I1
sg1819
I00
sbag0
(g1803
g2
Ntp2682
Rp2683
(dp2684
g1807
I00
sg1808
Nsg1809
g54
(g55
(I0
tp2685
g57
tp2686
Rp2687
(I1
(I2
I2
tp2688
g64
I00
S'"G\x97\xcc\xd8I\xe6?\'\xe7M5\x1d\xcf\xe1?"G\x97\xcc\xd8I\xe6?[\xcb]\xf1\x8c\x1d\xe9?'
p2689
tp2690
bsg1816
I00
sg1817
F0.1111111111111111
sg1818
I1
sg1819
I00
sbag0
(g1803
g2
Ntp2691
Rp2692
(dp2693
g1807
I00
sg1808
Nsg1809
g54
(g55
(I0
tp2694
g57
tp2695
Rp2696
(I1
(I2
I2
tp2697
g64
I00
S'\xac\xb8\xeed\xad(\xdf?\x9ak\xfdL\x06\xcd\xd3?\xac\xb8\xeed\xad(\xdf?QH\xfd\x98\xb8<\xe0?'
p2698
tp2699
bsg1816
I00
sg1817
F0.1111111111111111
sg1818
I1
sg1819
I00
sbag0
(g1803
g2
Ntp2700
Rp2701
(dp2702
g1807
I00
sg1808
Nsg1809
g54
(g55
(I0
tp2703
g57
tp2704
Rp2705
(I1
(I2
I2
tp2706
g64
I00
S'/\xd7\x00.5c\xef?f*\x7f.\xb5\xe3\xea?/\xd7\x00.5c\xef?\x03\x18\xc8\x01\xe5F\xf0?'
p2707
tp2708
bsg1816
I00
sg1817
F0.1111111111111111
sg1818
I1
sg1819
I00
sbag0
(g1803
g2
Ntp2709
Rp2710
(dp2711
g1807
I00
sg1808
Nsg1809
g54
(g55
(I0
tp2712
g57
tp2713
Rp2714
(I1
(I2
I2
tp2715
g64
I00
S'\r\xcbze\xbd\xb2\xee?\x9d\x0cv\xb8jo\xe6?\r\xcbze\xbd\xb2\xee?_\x06\xbd3\x00\x1c\xef?'
p2716
tp2717
bsg1816
I00
sg1817
F0.1111111111111111
sg1818
I1
sg1819
I00
sbag0
(g1803
g2
Ntp2718
Rp2719
(dp2720
g1807
I00
sg1808
Nsg1809
g54
(g55
(I0
tp2721
g57
tp2722
Rp2723
(I1
(I2
I2
tp2724
g64
I00
S'\xfd\x94 O\t\xf2\xe4?b\xee\xe7\x8fBI\xdf?\xfd\x94 O\t\xf2\xe4?\x8d\xfcH\x87R\x98\xef?'
p2725
tp2726
bsg1816
I00
sg1817
F0.1111111111111111
sg1818
I1
sg1819
I00
sbasg26
I01
sg2081
Nsg2082
(lp2727
(NNtp2728
asg29
Nsg30
Nsg2085
g2086
sg17
Nsg35
I00
sg2087
g54
(g55
(I0
tp2729
g57
tp2730
Rp2731
(I1
(I0
I4
tp2732
g64
I00
g2092
tp2733
bsg2094
Nsg36
I00
sg1766
Nsg37
(dp2734
sg2096
g54
(g55
(I0
tp2735
g57
tp2736
Rp2737
(I1
(I1
tp2738
g2103
I00
g2106
tp2739
bsg2108
I2
sg39
I00
sg2109
g0
(g2110
g2
Ntp2740
Rp2741
(dp2742
g2114
Nsg2115
I00
sg2116
Nsbsg2117
Nsg1673
I01
sg2118
(lp2743
Nasg2120
g54
(g55
(I0
tp2744
g57
tp2745
Rp2746
(I1
(I1
I4
tp2747
g64
I00
S'\x00\x00\x00\x00\x00\x00\x00\x00\x00\x00\x00\x00\x00\x00\x00\x00\x00\x00\x00\x00\x00\x00\x00\x00\x00\x00\x00\x00\x00\x00\xf0?'
p2748
tp2749
bsg43
g1166
sg2127
I5
sg40
Nsg2128
(g2129
(g64
S'\x00\x00\x00\x00\x00\x00\x00\x00'
p2750
tp2751
Rp2752
g2129
(g64
S'\x00\x00\x00\x00\x00\x00\x00\x00'
p2753
tp2754
Rp2755
g2129
(g64
S'\x00\x00\x00\x00\x00\x00\x00\x00'
p2756
tp2757
Rp2758
g2129
(g64
S'\x00\x00\x00\x00\x00\x00\xf0?'
p2759
tp2760
Rp2761
tp2762
sg2143
g2144
sg2145
(dp2763
g2147
I00
ssg1671
Nsg2148
Nsg2149
g54
(g55
(I0
tp2764
g57
tp2765
Rp2766
(I1
(I1
tp2767
g64
I00
S'\x00\x00\x00\x00\x00\x00\xfc?'
p2768
tp2769
bsg1675
g0
(g1676
g1677
((lp2770
(lp2771
tp2772
tp2773
Rp2774
sg34
I0
sg2161
I01
sg2162
I00
sg1689
I01
sg1690
Nsg76
g223
sg2163
Nsg2164
g2766
sg2165
g2168
sg2441
Nsg1751
Nsg31
Nsg1750
g1706
sg41
Nsbasg1750
g1706
sg37
(dp2775
sg39
I00
sS'containers'
p2776
(lp2777
g0
(cmatplotlib.container
ErrorbarContainer
p2778
g1677
(g0
(cmatplotlib.lines
Line2D
p2779
g2
Ntp2780
Rp2781
(dp2782
g6
g1784
sg1717
I2
sS'_dashcapstyle'
p2783
S'butt'
p2784
sg1785
Nsg26
I01
sS'_x_filled'
p2785
NsS'ind_offset'
p2786
I0
sg220
g54
(g55
(I0
tp2787
g57
tp2788
Rp2789
(I1
(I45
tp2790
g64
I00
S'\xaa\xd5\xdf\xdbx\xcd\xec?3\x99\xb0\r\x82S\xe9?"\xdf\xd7\xfe\xb5\xd0\xea?"\xa8`!\xc3t\xe4?\x8f*\xc0_p\xd7\xec?\x18\xb5\xfc\x1b\x12f\xec?333333\xeb?\x00\x00\x00\x00\x00\x00\xf8\x7f\xeb#\xdfd\xc4Q\xeb?\x9d\xd8\x89\x9d\xd8\x89\xea?-S\x8eN\xbf\xad\xe4?\xe3+\xbe\xe2+\xbe\xea?\x00\x00\x00\x00\x00\x00\xf8\x7f\x94b\xd1\xb2\nn\xf0?N\xec\xc4N\xec\xc4\xec?\x98\xec\x00\xc3\xb9\x1b\xea?\x04\x13\xfd\x9d\xac\x96\xef?\x00\x00\x00\x00\x00\x00\xf8\x7f\xa7KS}\xe4\x9b\xec?\'vb\'v\xe2\xe9? \xa9e\xca\xd1\xe9\xe7?\x1d\xb94\xce \xa8\xed?\x19\x01\xa7(#\xe0\xe4?\xcd\x02\xa3u\xbeL\xef?~\xe0\x07~\xe0\x07\xee?\x8ewT\xb3\xfe\x0c\xee?\xa3\x83\xed\x98\xf7\x16\xef?u\xef\x90\xa8"\xc4\xeb?J\x1b\xef\xa8f\xfd\xe9?\x9e\xcc\x87t\'\xf3\xe1?\x05\x82\xcbTc\xe9\xeb?\x91`\x13\xf4\xdf\x89\xea?*w\xads_\x18\xe9?\xb1\xe8\xe5\x1c\x87\xe2\xe5?k\xbd\x1b_\xd8\xe5\xea?\xc0<\xb9L^\xa5\xe2?\xf6\'Bt&*\xef?P$\x8aH\xea_\xe8?\xb8\xe9\x1b\xcfdP\xe4?\x9e\r\xee\xc5\x07\x88\xec?A\xd9U\x13Uv\xe5?\x1e\xfe{\xbf;#\xda?6\xad\x07\x99\xbf\xb8\xed?~\x89\x19v\xb5\xc5\xea?\xdfy\x9e\xe7y\x9e\xe7?'
p2791
tp2792
bsg221
g54
(g55
(I0
tp2793
g57
tp2794
Rp2795
(I1
(I45
tp2796
g64
I00
S'QQ\\\xfb)\x13\xf0?\x93\xc0d\xa2\xfa\x80\xf0?\x8d\xa1\x88\x89\xe1e\xf1?\x01mZ\xc8\xbf\xd8\xeb?+\xc2\xf1H\xee\x92\xe9?u\x044\xb4\x8b\x08\xe9?\x00\x00\x00\x00\x00\x00\xf8\x7f\x00\x00\x00\x00\x00\x00\xf8\x7f\x00\x00\x00\x00\x00\x00\xf8\x7f\x00\x00\x00\x00\x00\x00\xf8\x7f\x00\x00\x00\x00\x00\x00\xf8\x7f\x00\x00\x00\x00\x00\x00\xf8\x7f\x00\x00\x00\x00\x00\x00\xf8\x7f\x00\x00\x00\x00\x00\x00\xf8\x7f\x00\x00\x00\x00\x00\x00\xf8\x7f\x00\x00\x00\x00\x00\x00\xf8\x7f\x00\x00\x00\x00\x00\x00\xf8\x7f\x00\x00\x00\x00\x00\x00\xf8\x7f\x00\x00\x00\x00\x00\x00\xf8\x7f\x00\x00\x00\x00\x00\x00\xf8\x7f\x00\x00\x00\x00\x00\x00\xf8\x7f\xa4\x00\x91\x02D\n\xf0?\x1d0\x0ewa^\xe9?\x86b\xfe)\xbc\xe3\xee?-d!\x0bY\xc8\xed?\xcbk(\xaf\xa1<\xf0?!\xc6\xe0+\x8b\xdd\xef?\xdf\xf4\xa67\xbd\xe9\xec?\x95\xd7P^Cy\xed?F\xafJc\xfa\xfc\xe6?\xf2\xbbZ\xdc\x84\xf9\xef?\xe0p,\xd4{y\xe8?\x18\xdf5{F\x9e\xe7?/\xabk\x08\xaf\x80\xe4?\x00\x00\x00\x00\x00\x00\xf0?t|:\x80k\x0c\xe7?\xd0f\xaa\x1c\xe8\x13\xea?\x08\x03o^\xe7\x1b\xe8?8\\f!\x1a=\xe7?\x14\x81\xc9\x87\xbc2\xed?"G\x97\xcc\xd8I\xe6?\xac\xb8\xeed\xad(\xdf?/\xd7\x00.5c\xef?\r\xcbze\xbd\xb2\xee?\xfd\x94 O\t\xf2\xe4?'
p2797
tp2798
bsg30
Nsg17
Nsg36
I00
sg37
(dp2799
sg39
I00
sg1750
g1706
sS'_markeredgewidth'
p2800
F1.0
sS'_dashSeq'
p2801
NsS'_markerfacecoloralt'
p2802
Vnone
p2803
sS'_markeredgecolor'
p2804
Vauto
p2805
sg1671
Nsg1673
I01
sS'_xorig'
p2806
g54
(g55
(I0
tp2807
g57
tp2808
Rp2809
(I1
(I45
tp2810
g64
I00
S'QQ\\\xfb)\x13\xf0?\x93\xc0d\xa2\xfa\x80\xf0?\x8d\xa1\x88\x89\xe1e\xf1?\x01mZ\xc8\xbf\xd8\xeb?+\xc2\xf1H\xee\x92\xe9?u\x044\xb4\x8b\x08\xe9?\x00\x00\x00\x00\x00\x00\xf8\x7f\x00\x00\x00\x00\x00\x00\xf8\x7f\x00\x00\x00\x00\x00\x00\xf8\x7f\x00\x00\x00\x00\x00\x00\xf8\x7f\x00\x00\x00\x00\x00\x00\xf8\x7f\x00\x00\x00\x00\x00\x00\xf8\x7f\x00\x00\x00\x00\x00\x00\xf8\x7f\x00\x00\x00\x00\x00\x00\xf8\x7f\x00\x00\x00\x00\x00\x00\xf8\x7f\x00\x00\x00\x00\x00\x00\xf8\x7f\x00\x00\x00\x00\x00\x00\xf8\x7f\x00\x00\x00\x00\x00\x00\xf8\x7f\x00\x00\x00\x00\x00\x00\xf8\x7f\x00\x00\x00\x00\x00\x00\xf8\x7f\x00\x00\x00\x00\x00\x00\xf8\x7f\xa4\x00\x91\x02D\n\xf0?\x1d0\x0ewa^\xe9?\x86b\xfe)\xbc\xe3\xee?-d!\x0bY\xc8\xed?\xcbk(\xaf\xa1<\xf0?!\xc6\xe0+\x8b\xdd\xef?\xdf\xf4\xa67\xbd\xe9\xec?\x95\xd7P^Cy\xed?F\xafJc\xfa\xfc\xe6?\xf2\xbbZ\xdc\x84\xf9\xef?\xe0p,\xd4{y\xe8?\x18\xdf5{F\x9e\xe7?/\xabk\x08\xaf\x80\xe4?\x00\x00\x00\x00\x00\x00\xf0?t|:\x80k\x0c\xe7?\xd0f\xaa\x1c\xe8\x13\xea?\x08\x03o^\xe7\x1b\xe8?8\\f!\x1a=\xe7?\x14\x81\xc9\x87\xbc2\xed?"G\x97\xcc\xd8I\xe6?\xac\xb8\xeed\xad(\xdf?/\xd7\x00.5c\xef?\r\xcbze\xbd\xb2\xee?\xfd\x94 O\t\xf2\xe4?'
p2811
tp2812
bsg34
I0
sg1689
I01
sS'_invalidy'
p2813
I00
sS'_invalidx'
p2814
I00
sg76
g223
sS'_us_dashSeq'
p2815
Nsg2108
F2.1
sg1767
g2086
sS'pickradius'
p2816
I5
sg14
g4
sS'verticalOffset'
p2817
Nsg16
NsS'_dashOffset'
p2818
Nsg42
Nsg23
g24
sS'_solidjoinstyle'
p2819
S'round'
p2820
sg29
Nsg31
Nsg35
I00
sS'_markevery'
p2821
Nsg41
NsS'_transformed_path'
p2822
NsS'_marker'
p2823
g0
(cmatplotlib.markers
MarkerStyle
p2824
g2
Ntp2825
Rp2826
(dp2827
g2823
S'None'
p2828
sS'_alt_path'
p2829
NsS'_snap_threshold'
p2830
Nsg76
g0
(g280
g2
Ntp2831
Rp2832
(dp2833
g52
I1
sg81
Nsg89
g7
sg69
(dp2834
sbsS'_filled'
p2835
I00
sS'_fillstyle'
p2836
S'full'
p2837
sS'_alt_transform'
p2838
Nsg2441
Vbutt
p2839
sg2148
Vround
p2840
sS'_path'
p2841
g0
(g1803
g2
Ntp2842
Rp2843
(dp2844
g1807
I00
sg1808
Nsg1809
g54
(g55
(I0
tp2845
g57
tp2846
Rp2847
(I1
(I0
I2
tp2848
g64
I00
g2092
tp2849
bsg1816
I00
sg1817
F0.1111111111111111
sg1818
I1
sg1819
I00
sbsbsS'_markerfacecolor'
p2850
Vauto
p2851
sg43
g660
sg40
NsS'_antialiased'
p2852
I01
sS'_xy'
p2853
g54
(g55
(I0
tp2854
g57
tp2855
Rp2856
(I1
(I45
I2
tp2857
g64
I00
S'QQ\\\xfb)\x13\xf0?\xaa\xd5\xdf\xdbx\xcd\xec?\x93\xc0d\xa2\xfa\x80\xf0?3\x99\xb0\r\x82S\xe9?\x8d\xa1\x88\x89\xe1e\xf1?"\xdf\xd7\xfe\xb5\xd0\xea?\x01mZ\xc8\xbf\xd8\xeb?"\xa8`!\xc3t\xe4?+\xc2\xf1H\xee\x92\xe9?\x8f*\xc0_p\xd7\xec?u\x044\xb4\x8b\x08\xe9?\x18\xb5\xfc\x1b\x12f\xec?\x00\x00\x00\x00\x00\x00\xf8\x7f333333\xeb?\x00\x00\x00\x00\x00\x00\xf8\x7f\x00\x00\x00\x00\x00\x00\xf8\x7f\x00\x00\x00\x00\x00\x00\xf8\x7f\xeb#\xdfd\xc4Q\xeb?\x00\x00\x00\x00\x00\x00\xf8\x7f\x9d\xd8\x89\x9d\xd8\x89\xea?\x00\x00\x00\x00\x00\x00\xf8\x7f-S\x8eN\xbf\xad\xe4?\x00\x00\x00\x00\x00\x00\xf8\x7f\xe3+\xbe\xe2+\xbe\xea?\x00\x00\x00\x00\x00\x00\xf8\x7f\x00\x00\x00\x00\x00\x00\xf8\x7f\x00\x00\x00\x00\x00\x00\xf8\x7f\x94b\xd1\xb2\nn\xf0?\x00\x00\x00\x00\x00\x00\xf8\x7fN\xec\xc4N\xec\xc4\xec?\x00\x00\x00\x00\x00\x00\xf8\x7f\x98\xec\x00\xc3\xb9\x1b\xea?\x00\x00\x00\x00\x00\x00\xf8\x7f\x04\x13\xfd\x9d\xac\x96\xef?\x00\x00\x00\x00\x00\x00\xf8\x7f\x00\x00\x00\x00\x00\x00\xf8\x7f\x00\x00\x00\x00\x00\x00\xf8\x7f\xa7KS}\xe4\x9b\xec?\x00\x00\x00\x00\x00\x00\xf8\x7f\'vb\'v\xe2\xe9?\x00\x00\x00\x00\x00\x00\xf8\x7f \xa9e\xca\xd1\xe9\xe7?\xa4\x00\x91\x02D\n\xf0?\x1d\xb94\xce \xa8\xed?\x1d0\x0ewa^\xe9?\x19\x01\xa7(#\xe0\xe4?\x86b\xfe)\xbc\xe3\xee?\xcd\x02\xa3u\xbeL\xef?-d!\x0bY\xc8\xed?~\xe0\x07~\xe0\x07\xee?\xcbk(\xaf\xa1<\xf0?\x8ewT\xb3\xfe\x0c\xee?!\xc6\xe0+\x8b\xdd\xef?\xa3\x83\xed\x98\xf7\x16\xef?\xdf\xf4\xa67\xbd\xe9\xec?u\xef\x90\xa8"\xc4\xeb?\x95\xd7P^Cy\xed?J\x1b\xef\xa8f\xfd\xe9?F\xafJc\xfa\xfc\xe6?\x9e\xcc\x87t\'\xf3\xe1?\xf2\xbbZ\xdc\x84\xf9\xef?\x05\x82\xcbTc\xe9\xeb?\xe0p,\xd4{y\xe8?\x91`\x13\xf4\xdf\x89\xea?\x18\xdf5{F\x9e\xe7?*w\xads_\x18\xe9?/\xabk\x08\xaf\x80\xe4?\xb1\xe8\xe5\x1c\x87\xe2\xe5?\x00\x00\x00\x00\x00\x00\xf0?k\xbd\x1b_\xd8\xe5\xea?t|:\x80k\x0c\xe7?\xc0<\xb9L^\xa5\xe2?\xd0f\xaa\x1c\xe8\x13\xea?\xf6\'Bt&*\xef?\x08\x03o^\xe7\x1b\xe8?P$\x8aH\xea_\xe8?8\\f!\x1a=\xe7?\xb8\xe9\x1b\xcfdP\xe4?\x14\x81\xc9\x87\xbc2\xed?\x9e\r\xee\xc5\x07\x88\xec?"G\x97\xcc\xd8I\xe6?A\xd9U\x13Uv\xe5?\xac\xb8\xeed\xad(\xdf?\x1e\xfe{\xbf;#\xda?/\xd7\x00.5c\xef?6\xad\x07\x99\xbf\xb8\xed?\r\xcbze\xbd\xb2\xee?~\x89\x19v\xb5\xc5\xea?\xfd\x94 O\t\xf2\xe4?\xdfy\x9e\xe7y\x9e\xe7?'
p2858
tp2859
bsS'_linestyle'
p2860
g2828
sg1675
g0
(g1676
g1677
((lp2861
(lp2862
tp2863
tp2864
Rp2865
sS'_subslice'
p2866
I00
sS'_drawstyle'
p2867
Vdefault
p2868
sS'_solidcapstyle'
p2869
S'projecting'
p2870
sS'_us_dashOffset'
p2871
Nsg1690
NsS'_dashjoinstyle'
p2872
S'round'
p2873
sS'_markersize'
p2874
F6.0
sg15
I01
sS'_ycid'
p2875
I2
sg1766
Nsg1751
NsS'_yorig'
p2876
g54
(g55
(I0
tp2877
g57
tp2878
Rp2879
(I1
(I45
tp2880
g64
I00
S'\xaa\xd5\xdf\xdbx\xcd\xec?3\x99\xb0\r\x82S\xe9?"\xdf\xd7\xfe\xb5\xd0\xea?"\xa8`!\xc3t\xe4?\x8f*\xc0_p\xd7\xec?\x18\xb5\xfc\x1b\x12f\xec?333333\xeb?\x00\x00\x00\x00\x00\x00\xf8\x7f\xeb#\xdfd\xc4Q\xeb?\x9d\xd8\x89\x9d\xd8\x89\xea?-S\x8eN\xbf\xad\xe4?\xe3+\xbe\xe2+\xbe\xea?\x00\x00\x00\x00\x00\x00\xf8\x7f\x94b\xd1\xb2\nn\xf0?N\xec\xc4N\xec\xc4\xec?\x98\xec\x00\xc3\xb9\x1b\xea?\x04\x13\xfd\x9d\xac\x96\xef?\x00\x00\x00\x00\x00\x00\xf8\x7f\xa7KS}\xe4\x9b\xec?\'vb\'v\xe2\xe9? \xa9e\xca\xd1\xe9\xe7?\x1d\xb94\xce \xa8\xed?\x19\x01\xa7(#\xe0\xe4?\xcd\x02\xa3u\xbeL\xef?~\xe0\x07~\xe0\x07\xee?\x8ewT\xb3\xfe\x0c\xee?\xa3\x83\xed\x98\xf7\x16\xef?u\xef\x90\xa8"\xc4\xeb?J\x1b\xef\xa8f\xfd\xe9?\x9e\xcc\x87t\'\xf3\xe1?\x05\x82\xcbTc\xe9\xeb?\x91`\x13\xf4\xdf\x89\xea?*w\xads_\x18\xe9?\xb1\xe8\xe5\x1c\x87\xe2\xe5?k\xbd\x1b_\xd8\xe5\xea?\xc0<\xb9L^\xa5\xe2?\xf6\'Bt&*\xef?P$\x8aH\xea_\xe8?\xb8\xe9\x1b\xcfdP\xe4?\x9e\r\xee\xc5\x07\x88\xec?A\xd9U\x13Uv\xe5?\x1e\xfe{\xbf;#\xda?6\xad\x07\x99\xbf\xb8\xed?~\x89\x19v\xb5\xc5\xea?\xdfy\x9e\xe7y\x9e\xe7?'
p2881
tp2882
bsS'_linewidth'
p2883
F1.75
sg2841
g0
(g1803
g2
Ntp2884
Rp2885
(dp2886
g1807
I00
sg1808
Nsg1809
g54
(g55
(I0
tp2887
g57
tp2888
Rp2889
(I1
(I45
I2
tp2890
g64
I01
S'QQ\\\xfb)\x13\xf0?\x93\xc0d\xa2\xfa\x80\xf0?\x8d\xa1\x88\x89\xe1e\xf1?\x01mZ\xc8\xbf\xd8\xeb?+\xc2\xf1H\xee\x92\xe9?u\x044\xb4\x8b\x08\xe9?\x00\x00\x00\x00\x00\x00\xf8\x7f\x00\x00\x00\x00\x00\x00\xf8\x7f\x00\x00\x00\x00\x00\x00\xf8\x7f\x00\x00\x00\x00\x00\x00\xf8\x7f\x00\x00\x00\x00\x00\x00\xf8\x7f\x00\x00\x00\x00\x00\x00\xf8\x7f\x00\x00\x00\x00\x00\x00\xf8\x7f\x00\x00\x00\x00\x00\x00\xf8\x7f\x00\x00\x00\x00\x00\x00\xf8\x7f\x00\x00\x00\x00\x00\x00\xf8\x7f\x00\x00\x00\x00\x00\x00\xf8\x7f\x00\x00\x00\x00\x00\x00\xf8\x7f\x00\x00\x00\x00\x00\x00\xf8\x7f\x00\x00\x00\x00\x00\x00\xf8\x7f\x00\x00\x00\x00\x00\x00\xf8\x7f\xa4\x00\x91\x02D\n\xf0?\x1d0\x0ewa^\xe9?\x86b\xfe)\xbc\xe3\xee?-d!\x0bY\xc8\xed?\xcbk(\xaf\xa1<\xf0?!\xc6\xe0+\x8b\xdd\xef?\xdf\xf4\xa67\xbd\xe9\xec?\x95\xd7P^Cy\xed?F\xafJc\xfa\xfc\xe6?\xf2\xbbZ\xdc\x84\xf9\xef?\xe0p,\xd4{y\xe8?\x18\xdf5{F\x9e\xe7?/\xabk\x08\xaf\x80\xe4?\x00\x00\x00\x00\x00\x00\xf0?t|:\x80k\x0c\xe7?\xd0f\xaa\x1c\xe8\x13\xea?\x08\x03o^\xe7\x1b\xe8?8\\f!\x1a=\xe7?\x14\x81\xc9\x87\xbc2\xed?"G\x97\xcc\xd8I\xe6?\xac\xb8\xeed\xad(\xdf?/\xd7\x00.5c\xef?\r\xcbze\xbd\xb2\xee?\xfd\x94 O\t\xf2\xe4?\xaa\xd5\xdf\xdbx\xcd\xec?3\x99\xb0\r\x82S\xe9?"\xdf\xd7\xfe\xb5\xd0\xea?"\xa8`!\xc3t\xe4?\x8f*\xc0_p\xd7\xec?\x18\xb5\xfc\x1b\x12f\xec?333333\xeb?\x00\x00\x00\x00\x00\x00\xf8\x7f\xeb#\xdfd\xc4Q\xeb?\x9d\xd8\x89\x9d\xd8\x89\xea?-S\x8eN\xbf\xad\xe4?\xe3+\xbe\xe2+\xbe\xea?\x00\x00\x00\x00\x00\x00\xf8\x7f\x94b\xd1\xb2\nn\xf0?N\xec\xc4N\xec\xc4\xec?\x98\xec\x00\xc3\xb9\x1b\xea?\x04\x13\xfd\x9d\xac\x96\xef?\x00\x00\x00\x00\x00\x00\xf8\x7f\xa7KS}\xe4\x9b\xec?\'vb\'v\xe2\xe9? \xa9e\xca\xd1\xe9\xe7?\x1d\xb94\xce \xa8\xed?\x19\x01\xa7(#\xe0\xe4?\xcd\x02\xa3u\xbeL\xef?~\xe0\x07~\xe0\x07\xee?\x8ewT\xb3\xfe\x0c\xee?\xa3\x83\xed\x98\xf7\x16\xef?u\xef\x90\xa8"\xc4\xeb?J\x1b\xef\xa8f\xfd\xe9?\x9e\xcc\x87t\'\xf3\xe1?\x05\x82\xcbTc\xe9\xeb?\x91`\x13\xf4\xdf\x89\xea?*w\xads_\x18\xe9?\xb1\xe8\xe5\x1c\x87\xe2\xe5?k\xbd\x1b_\xd8\xe5\xea?\xc0<\xb9L^\xa5\xe2?\xf6\'Bt&*\xef?P$\x8aH\xea_\xe8?\xb8\xe9\x1b\xcfdP\xe4?\x9e\r\xee\xc5\x07\x88\xec?A\xd9U\x13Uv\xe5?\x1e\xfe{\xbf;#\xda?6\xad\x07\x99\xbf\xb8\xed?~\x89\x19v\xb5\xc5\xea?\xdfy\x9e\xe7y\x9e\xe7?'
p2891
tp2892
bsg1816
I00
sg1817
F0.1111111111111111
sg1818
I1
sg1819
I01
sbsb(t(g1782
g2443
tp2893
tp2894
tp2895
Rp2896
(dp2897
g6
NsS'lines'
p2898
(g2781
(tg2893
tp2899
sS'has_xerr'
p2900
I01
sg37
(dp2901
sS'has_yerr'
p2902
I01
sg39
I00
sg34
I0
sg41
Nsbasg36
I00
sg43
NsS'_get_lines'
p2903
g0
(g1710
g2
Ntp2904
Rp2905
(dp2906
g1714
g1706
sg1715
Vplot
p2907
sbsS'_aspect'
p2908
Vauto
p2909
sS'fmt_xdata'
p2910
Nsg1664
g0
(g1665
g2
Ntp2911
Rp2912
(dp2913
g1669
g1670
sbsg1671
NsS'_facecolor'
p2914
S'w'
p2915
sg1673
I01
sS'bbox'
p2916
g111
sS'ignore_existing_data_limits'
p2917
I00
sg30
Nsg34
I0
sg1689
I00
sS'_left_title'
p2918
g0
(g1728
g2
Ntp2919
Rp2920
(dp2921
g6
g7
sg15
I01
sg14
g4
sg16
Nsg1732
g0
(g1733
g2
Ntp2922
Rp2923
(dp2924
g1737
g1738
sg1740
Nsg1741
g1742
sg1743
g1742
sg1744
F14.399999999999999
sg1745
g1742
sg1746
g1742
sbsg42
Nsg23
g24
sg1747
Nsg26
I01
sg29
Nsg220
F1.0
sg221
F0.0
sg30
Nsg31
Nsg17
Nsg35
I00
sg36
I00
sg37
(dp2925
sg1749
Nsg39
I00
sg1750
g1706
sg43
Nsg1751
Nsg1752
Nsg40
Nsg1671
Nsg1673
I01
sg1753
g1754
sg1755
g7
sg1756
Nsg1675
g0
(g1676
g1677
((lp2926
(lp2927
tp2928
tp2929
Rp2930
sg34
I0
sg1762
Nsg1689
I01
sg1690
Nsg1763
F1.2
sg76
g1044
sg1764
I00
sg1765
I00
sg1766
Nsg1767
g1768
sg1769
Vleft
p2931
sg41
NsbsS'_right_title'
p2932
g0
(g1728
g2
Ntp2933
Rp2934
(dp2935
g6
g7
sg15
I01
sg14
g4
sg16
Nsg1732
g0
(g1733
g2
Ntp2936
Rp2937
(dp2938
g1737
g1738
sg1740
Nsg1741
g1742
sg1743
g1742
sg1744
F14.399999999999999
sg1745
g1742
sg1746
g1742
sbsg42
Nsg23
g24
sg1747
Nsg26
I01
sg29
Nsg220
F1.0
sg221
F1.0
sg30
Nsg31
Nsg17
Nsg35
I00
sg36
I00
sg37
(dp2939
sg1749
Nsg39
I00
sg1750
g1706
sg43
Nsg1751
Nsg1752
Nsg40
Nsg1671
Nsg1673
I01
sg1753
g1754
sg1755
g7
sg1756
Nsg1675
g0
(g1676
g1677
((lp2940
(lp2941
tp2942
tp2943
Rp2944
sg34
I0
sg1762
Nsg1689
I01
sg1690
Nsg1763
F1.2
sg76
g1048
sg1764
I00
sg1765
I00
sg1766
Nsg1767
g1768
sg1769
Vright
p2945
sg41
NsbsS'transScale'
p2946
g227
sg76
NsS'axison'
p2947
I01
sS'patch'
p2948
g0
(cmatplotlib.patches
Rectangle
p2949
g2
Ntp2950
Rp2951
(dp2952
g6
g7
sS'_width'
p2953
F1.0
sS'_fill'
p2954
I01
sg14
g4
sg15
I01
sg16
Nsg42
Nsg23
g24
sg1766
NsS'_x0'
p2955
F0.0
sg26
I01
sS'_combined_transform'
p2956
g0
(g280
g2
Ntp2957
Rp2958
(dp2959
g52
I1
sg81
Nsg89
g7
sg69
(dp2960
sbsS'_edgecolor'
p2961
(F0.0
F0.0
F0.0
F0.0
tp2962
sS'angle'
p2963
F0.0
sg29
Nsg30
Nsg2085
VNone
p2964
sg17
NsS'_x1'
p2965
F1.0
sg35
I00
sg36
I00
sg37
(dp2966
sS'_rect_transform'
p2967
g1561
sg39
I00
sg2117
Nsg1673
I01
sg2883
F0.0
sg43
NsS'_height'
p2968
F1.0
sg40
Nsg2128
g2962
sS'_dashes'
p2969
Nsg2852
I01
sS'_dashoffset'
p2970
Nsg2143
g2915
sg1671
Nsg2914
(g2129
(g64
S'\x00\x00\x00\x00\x00\x00\xf0?'
p2971
tp2972
Rp2973
g2129
(g64
S'\x00\x00\x00\x00\x00\x00\xf0?'
p2974
tp2975
Rp2976
g2129
(g64
S'\x00\x00\x00\x00\x00\x00\xf0?'
p2977
tp2978
Rp2979
I1
tp2980
sg2148
Vmiter
p2981
sg2860
Vsolid
p2982
sg1675
g0
(g1676
g1677
((lp2983
(lp2984
tp2985
tp2986
Rp2987
sg34
I0
sS'_y1'
p2988
F1.0
sS'_y0'
p2989
F0.0
sg1689
I01
sg1690
Nsg76
g107
sS'_us_dashes'
p2990
(NNtp2991
sg2441
Vbutt
p2992
sg1751
Nsg31
Nsg1750
Nsg41
NsbsS'viewLim'
p2993
g236
sg23
g24
sS'_subplotspec'
p2994
g0
(cmatplotlib.gridspec
SubplotSpec
p2995
g2
Ntp2996
Rp2997
(dp2998
S'num1'
p2999
I0
sS'num2'
p3000
I0
sS'_gridspec'
p3001
g0
(cmatplotlib.gridspec
GridSpec
p3002
g2
Ntp3003
Rp3004
(dp3005
S'_nrows'
p3006
I1
sS'right'
p3007
NsS'_col_width_ratios'
p3008
Nsg14
g4
sS'bottom'
p3009
NsS'top'
p3010
NsS'wspace'
p3011
NsS'_ncols'
p3012
I1
sS'hspace'
p3013
NsS'_row_height_ratios'
p3014
NsS'left'
p3015
NsbsbsS'_adjustable'
p3016
Vbox
p3017
sg14
g4
sS'titleOffsetTrans'
p3018
g93
sS'_yaxis_transform'
p3019
g292
sS'_gridOn'
p3020
I01
sg16
NsS'colNum'
p3021
g2129
(g61
(S'i8'
p3022
I0
I1
tp3023
Rp3024
(I3
S'<'
p3025
NNNI-1
I-1
I0
tp3026
bS'\x00\x00\x00\x00\x00\x00\x00\x00'
p3027
tp3028
Rp3029
sg42
Nsg45
(lp3030
sS'_autoscaleXon'
p3031
I00
sS'_xmargin'
p3032
F0.05
sS'rowNum'
p3033
g2129
(g3024
S'\x00\x00\x00\x00\x00\x00\x00\x00'
p3034
tp3035
Rp3036
sS'_position'
p3037
g114
sS'_rasterization_zorder'
p3038
NsS'_cachedRenderer'
p3039
NsS'_navigate'
p3040
I01
sg29
NsS'_originalPosition'
p3041
g0
(g48
g2
Ntp3042
Rp3043
(dp3044
g52
I1
sg53
g54
(g55
(I0
tp3045
g57
tp3046
Rp3047
(I1
(I2
tp3048
g64
I00
S'\x00\x00\x00\x00\x00\x00\xf0\x7f\x00\x00\x00\x00\x00\x00\xf0\x7f'
p3049
tp3050
bsg69
(dp3051
sg123
g54
(g55
(I0
tp3052
g57
tp3053
Rp3054
(I1
(I2
I2
tp3055
g64
I00
S'\x9a\x99\x99\x99\x99\x99\xb9?\x98\x99\x99\x99\x99\x99\xb9?ffffff\xee?ffffff\xee?'
p3056
tp3057
bsg130
g54
(g55
(I0
tp3058
g57
tp3059
Rp3060
(I1
(I2
I2
tp3061
g64
I00
S'\x9a\x99\x99\x99\x99\x99\xb9?\x98\x99\x99\x99\x99\x99\xb9?ffffff\xee?ffffff\xee?'
p3062
tp3063
bsg137
I01
sg89
g7
sbsg31
NsS'_xaxis_transform'
p3064
g218
sg35
I00
sS'figbox'
p3065
g114
sS'xaxis'
p3066
g0
(cmatplotlib.axis
XAxis
p3067
g2
Ntp3068
Rp3069
(dp3070
g6
g7
sS'major'
p3071
g0
(cmatplotlib.axis
Ticker
p3072
g2
Ntp3073
Rp3074
(dp3075
S'locator'
p3076
g0
(cmatplotlib.ticker
AutoLocator
p3077
g2
Ntp3078
Rp3079
(dp3080
S'_min_n_ticks'
p3081
I2
sS'_symmetric'
p3082
I00
sS'_nbins'
p3083
Vauto
p3084
sS'_steps'
p3085
g54
(g55
(I0
tp3086
g57
tp3087
Rp3088
(I1
(I5
tp3089
g64
I00
S'\x00\x00\x00\x00\x00\x00\xf0?\x00\x00\x00\x00\x00\x00\x00@\x00\x00\x00\x00\x00\x00\x04@\x00\x00\x00\x00\x00\x00\x14@\x00\x00\x00\x00\x00\x00$@'
p3090
tp3091
bsS'_prune'
p3092
NsS'_extended_steps'
p3093
g54
(g55
(I0
tp3094
g57
tp3095
Rp3096
(I1
(I10
tp3097
g64
I00
S'\x9a\x99\x99\x99\x99\x99\xb9?\x9a\x99\x99\x99\x99\x99\xc9?\x00\x00\x00\x00\x00\x00\xd0?\x00\x00\x00\x00\x00\x00\xe0?\x00\x00\x00\x00\x00\x00\xf0?\x00\x00\x00\x00\x00\x00\x00@\x00\x00\x00\x00\x00\x00\x04@\x00\x00\x00\x00\x00\x00\x14@\x00\x00\x00\x00\x00\x00$@\x00\x00\x00\x00\x00\x004@'
p3098
tp3099
bsS'_integer'
p3100
I00
sS'axis'
p3101
g3069
sbsS'formatter'
p3102
g0
(cmatplotlib.ticker
ScalarFormatter
p3103
g2
Ntp3104
Rp3105
(dp3106
S'_powerlimits'
p3107
(lp3108
I-7
aI7
asS'orderOfMagnitude'
p3109
I0
sS'_useOffset'
p3110
I01
sS'_useLocale'
p3111
I00
sS'format'
p3112
g7
sS'_useMathText'
p3113
I00
sS'_offset_threshold'
p3114
I4
sS'offset'
p3115
I0
sg1764
I00
sS'_scientific'
p3116
I01
sg3101
g3069
sbsbsS'isDefault_label'
p3117
I00
sS'_scale'
p3118
g0
(cmatplotlib.scale
LinearScale
p3119
g2
Ntp3120
Rp3121
sg14
g4
sg15
I01
sS'_gridOnMinor'
p3122
I00
sg16
Nsg42
NsS'_smart_bounds'
p3123
I00
sg23
g24
sg26
I01
sg29
NsS'offsetText'
p3124
g0
(g1728
g2
Ntp3125
Rp3126
(dp3127
g6
g7
sg15
I01
sg14
g4
sg16
Nsg1732
g0
(g1733
g2
Ntp3128
Rp3129
(dp3130
g1737
(lp3131
Vsans-serif
p3132
asg1740
Nsg1741
g1742
sg1743
g1742
sg1744
F14.399999999999999
sg1745
g1742
sg1746
g1742
sbsg42
Nsg23
g24
sg1747
Nsg26
I01
sg29
Nsg220
I0
sg221
I1
sg30
Nsg31
Nsg17
Nsg35
I00
sg36
I00
sg37
(dp3133
sg1749
Nsg39
I00
sg1750
Nsg43
Nsg1751
Nsg1752
Nsg40
Nsg1671
Nsg1673
I01
sg1753
Vtop
p3134
sg1755
g2092
sg1756
Nsg1675
g0
(g1676
g1677
((lp3135
(lp3136
tp3137
tp3138
Rp3139
sg34
I0
sg1762
Nsg1689
I01
sg1690
Nsg1763
F1.2
sg76
g1628
sg1764
I00
sg1765
I00
sg1766
Nsg1767
g1768
sg1769
Vright
p3140
sg41
Nsbsg30
Nsg31
Nsg17
NsS'label'
p3141
g0
(g1728
g2
Ntp3142
Rp3143
(dp3144
g6
g7
sg15
I01
sg14
g4
sg16
Nsg1732
g0
(g1733
g2
Ntp3145
Rp3146
(dp3147
g1737
(lp3148
Vsans-serif
p3149
asg1740
Nsg1741
g1742
sg1743
g1742
sg1744
F17.28
sg1745
Vbold
p3150
sg1746
g1742
sbsg42
Nsg23
g24
sg1747
Nsg26
I01
sg29
Nsg220
I0
sg221
F0.5
sg30
Nsg31
Nsg17
Nsg35
I00
sg36
I00
sg37
(dp3151
sg1749
Nsg39
I00
sg1750
Nsg43
Nsg1751
Nsg1752
Nsg40
Nsg1671
Nsg1673
I01
sg1753
Vtop
p3152
sg1755
S'$J_{max}^{O_3}/J_{max}^{CF}$'
p3153
sg1756
Nsg1675
g0
(g1676
g1677
((lp3154
(lp3155
tp3156
tp3157
Rp3158
sg34
I0
sg1762
Nsg1689
I01
sg1690
Nsg1763
F1.2
sg76
g1036
sg1764
I00
sg1765
I00
sg1766
Nsg1767
g1768
sg1769
Vcenter
p3159
sg41
Nsbsg35
I00
sS'isDefault_majfmt'
p3160
I01
sg36
I00
sg37
(dp3161
sS'units'
p3162
Nsg39
I00
sS'minor'
p3163
g0
(g3072
g2
Ntp3164
Rp3165
(dp3166
g3076
g0
(cmatplotlib.ticker
NullLocator
p3167
g2
Ntp3168
Rp3169
(dp3170
g3101
g3069
sbsg3102
g0
(cmatplotlib.ticker
NullFormatter
p3171
g2
Ntp3172
Rp3173
(dp3174
g3101
g3069
sbsbsg1750
g1706
sS'_major_tick_kw'
p3175
(dp3176
Vtick1On
p3177
I01
sVlabel1On
p3178
I01
sVtick2On
p3179
I00
sS'gridOn'
p3180
I01
sVlabel2On
p3181
I00
ssS'isDefault_minloc'
p3182
I01
sg43
g1306
sg40
NsS'_gridOnMajor'
p3183
I01
sS'labelpad'
p3184
F4.0
sS'majorTicks'
p3185
(lp3186
g0
(cmatplotlib.axis
XTick
p3187
g2
Ntp3188
Rp3189
(dp3190
g6
g7
sg2953
F1.8
sg14
g4
sS'tick1On'
p3191
I01
sg15
I01
sg1689
I00
sg16
Nsg34
I0
sg42
NsS'_pad'
p3192
F9.0
sS'_labelcolor'
p3193
g1768
sg3180
I01
sg1744
F5.5
sg23
g24
sS'_tickdir'
p3194
S'out'
p3195
sg3141
g0
(g1728
g2
Ntp3196
Rp3197
(dp3198
g6
g7
sg15
I01
sg14
g4
sg16
Nsg1732
g0
(g1733
g2
Ntp3199
Rp3200
(dp3201
g1737
(lp3202
Vsans-serif
p3203
asg1740
Nsg1741
g1742
sg1743
g1742
sg1744
F14.399999999999999
sg1745
g1742
sg1746
g1742
sbsg42
Nsg23
g24
sg1747
Nsg26
I01
sg29
Nsg220
I0
sg221
I0
sg30
Nsg31
Nsg17
Nsg35
I00
sg36
I00
sg37
(dp3204
sg1749
Nsg39
I00
sg1750
Nsg43
Nsg1751
Nsg1752
Nsg40
Nsg1671
Nsg1673
I01
sg1753
Vtop
p3205
sg1755
g2092
sg1756
Nsg1675
g0
(g1676
g1677
((lp3206
(lp3207
tp3208
tp3209
Rp3210
sg34
I0
sg1762
Nsg1689
I01
sg1690
Nsg1763
F1.2
sg76
g370
sg1764
I00
sg1765
I00
sg1766
Nsg1767
g1768
sg1769
S'center'
p3211
sg41
Nsbsg26
I01
sg29
NsS'label2On'
p3212
I00
sg30
Nsg31
NsS'_grid_color'
p3213
S'#b0b0b0'
p3214
sg17
NsS'tick2On'
p3215
I00
sg35
I00
sS'_grid_kw'
p3216
(dp3217
sg36
I00
sg37
(dp3218
sS'_tickmarkers'
p3219
(I3
I2
tp3220
sg39
I00
sS'_zorder'
p3221
F2.01
sg1750
g1706
sS'label1On'
p3222
I01
sg43
g590
sg1751
NsS'label1'
p3223
g3197
sS'label2'
p3224
g0
(g1728
g2
Ntp3225
Rp3226
(dp3227
g6
g7
sg15
I01
sg14
g4
sg16
Nsg1732
g0
(g1733
g2
Ntp3228
Rp3229
(dp3230
g1737
(lp3231
Vsans-serif
p3232
asg1740
Nsg1741
g1742
sg1743
g1742
sg1744
F14.399999999999999
sg1745
g1742
sg1746
g1742
sbsg42
Nsg23
g24
sg1747
Nsg26
I01
sg29
Nsg220
I1
sg221
I0
sg30
Nsg31
Nsg17
Nsg35
I00
sg36
I00
sg37
(dp3233
sg1749
Nsg39
I00
sg1750
Nsg43
Nsg1751
Nsg1752
Nsg40
Nsg1671
Nsg1673
I01
sg1753
Vbottom
p3234
sg1755
g2092
sg1756
Nsg1675
g0
(g1676
g1677
((lp3235
(lp3236
tp3237
tp3238
Rp3239
sg34
I0
sg1762
Nsg1689
I01
sg1690
Nsg1763
F1.2
sg76
g388
sg1764
I00
sg1765
I00
sg1766
Nsg1767
g1768
sg1769
g3211
sg41
Nsbsg1671
NsS'_loc'
p3240
I0
sg1673
I01
sg1675
g0
(g1676
g1677
((lp3241
(lp3242
tp3243
tp3244
Rp3245
sS'_base_pad'
p3246
F3.5
sS'_grid_linewidth'
p3247
F0.8
sS'_grid_alpha'
p3248
F1.0
sS'gridline'
p3249
g0
(g2779
g2
Ntp3250
Rp3251
(dp3252
g6
g7
sg15
I01
sg2869
S'projecting'
p3253
sg14
g4
sg2783
S'butt'
p3254
sg1785
Nsg16
Nsg42
Nsg23
g24
sg2819
S'round'
p3255
sg26
I01
sg2785
Nsg29
Nsg220
g54
(g55
(I0
tp3256
g57
tp3257
Rp3258
(I1
(I2
tp3259
g64
I00
S'\x00\x00\x00\x00\x00\x00\x00\x00\x00\x00\x00\x00\x00\x00\xf0?'
p3260
tp3261
bsg221
g54
(g55
(I0
tp3262
g57
tp3263
Rp3264
(I1
(I2
tp3265
g64
I00
S'\x00\x00\x00\x00\x00\x00\x00\x00\x00\x00\x00\x00\x00\x00\x00\x00'
p3266
tp3267
bsg30
Nsg31
Nsg17
Nsg2806
(F0.0
F0.0
tp3268
sg35
I00
sg2821
Nsg36
I00
sg37
(dp3269
sg2817
Nsg39
I00
sg2866
I00
sg1750
Nsg2822
Nsg2800
F1.0
sg2850
g2851
sg2801
Nsg1767
g3214
sg2823
g0
(g2824
g2
Ntp3270
Rp3271
(dp3272
g2823
g2828
sg2829
Nsg2830
Nsg76
g0
(g280
g2
Ntp3273
Rp3274
(dp3275
g52
I1
sg81
Nsg89
g7
sg69
(dp3276
sbsg2835
I00
sg2836
g2837
sg2838
Nsg2441
g2839
sg2148
g2840
sg2841
g2843
sbsg40
Nsg2802
g2803
sg2852
I01
sg2804
g2805
sg1671
Nsg2874
F0.0
sg1673
I01
sg2853
g54
(g55
(I0
tp3277
g57
tp3278
Rp3279
(I1
(I2
I2
tp3280
g64
I00
S'\x00\x00\x00\x00\x00\x00\x00\x00\x00\x00\x00\x00\x00\x00\x00\x00\x00\x00\x00\x00\x00\x00\x00\x00\x00\x00\x00\x00\x00\x00\xf0?'
p3281
tp3282
bsg2860
S'-'
p3283
sg1675
g0
(g1676
g1677
((lp3284
(lp3285
tp3286
tp3287
Rp3288
sg34
I0
sg2867
g2868
sg2786
I0
sg2871
Nsg2816
I5
sg1689
I01
sg1690
F1.0
sg2872
S'round'
p3289
sg2814
I00
sg76
g218
sg2818
Nsg2815
Nsg2813
I00
sg1766
Nsg1751
Nsg2876
(I0
F1.0
tp3290
sg43
g520
sg2883
F0.8
sg41
Nsg2841
g0
(g1803
g2
Ntp3291
Rp3292
(dp3293
g1807
I00
sg1808
Nsg1809
g54
(g55
(I0
tp3294
g57
tp3295
Rp3296
(I1
(I2
I2
tp3297
g64
I01
S'\x00\x00\x00\x00\x00\x00\x00\x00\x00\x00\x00\x00\x00\x00\x00\x00\x00\x00\x00\x00\x00\x00\x00\x00\x00\x00\x00\x00\x00\x00\xf0?'
p3298
tp3299
bsg1816
I00
sg1817
F0.1111111111111111
sg1818
I180
sg1819
I00
sbsbsg1690
Nsg40
NsS'tick2line'
p3300
g0
(g2779
g2
Ntp3301
Rp3302
(dp3303
g6
g7
sg2783
S'butt'
p3304
sg1785
Nsg26
I01
sg2785
Nsg2786
I0
sg220
Nsg221
Nsg30
Nsg17
Nsg36
I00
sg37
(dp3305
sg39
I00
sg1750
Nsg2800
F1.8
sg2801
Nsg2802
g2803
sg2804
g2805
sg1671
Nsg1673
I01
sg2806
(I0
tp3306
sg34
I0
sg1689
I01
sg2813
I01
sg2814
I01
sg76
g218
sg2815
Nsg2108
F2.01
sg1767
g1768
sg2816
I5
sg14
g4
sg2817
Nsg16
Nsg42
Nsg23
g24
sg2819
S'round'
p3307
sg29
Nsg31
Nsg35
I00
sg2821
Nsg41
Nsg2822
Nsg2823
g0
(g2824
g2
Ntp3308
Rp3309
(dp3310
g2823
I2
sg2829
Nsg2830
F1.0
sg76
g0
(g77
g2
Ntp3311
Rp3312
(dp3313
g52
I2
sg81
Nsg82
g54
(g55
(I0
tp3314
g57
tp3315
Rp3316
(I1
(I3
I3
tp3317
g64
I00
S'\x00\x00\x00\x00\x00\x00\xf0?\x00\x00\x00\x00\x00\x00\x00\x00\x00\x00\x00\x00\x00\x00\x00\x00\x00\x00\x00\x00\x00\x00\x00\x00\x00\x00\x00\x00\x00\x00\xf0?\x00\x00\x00\x00\x00\x00\x00\x00\x00\x00\x00\x00\x00\x00\x00\x00\x00\x00\x00\x00\x00\x00\x00\x00\x00\x00\x00\x00\x00\x00\xf0?'
p3318
tp3319
bsg89
g7
sg69
(dp3320
sbsg2835
I00
sg2836
g2837
sg2838
Nsg2441
g2839
sg2148
g2840
sg2841
g0
(g1803
g2
Ntp3321
Rp3322
(dp3323
g1807
I00
sg1808
Nsg1809
g54
(g55
(I0
tp3324
g57
tp3325
Rp3326
(I1
(I2
I2
tp3327
g64
I00
S'\x00\x00\x00\x00\x00\x00\x00\x80\x00\x00\x00\x00\x00\x00\x00\x00\x00\x00\x00\x00\x00\x00\x00\x80\x00\x00\x00\x00\x00\x00\xf0?'
p3328
tp3329
bsg1816
I00
sg1817
F0.1111111111111111
sg1818
I1
sg1819
I00
sbsbsg2850
g2851
sg43
Nsg40
Nsg2852
I01
sg2853
Nsg2860
VNone
p3330
sg1675
g0
(g1676
g1677
((lp3331
(lp3332
tp3333
tp3334
Rp3335
sg2866
I00
sg2867
g2868
sg2869
S'projecting'
p3336
sg2871
Nsg1690
Nsg2872
S'round'
p3337
sg2874
F5.5
sg15
I01
sg2818
Nsg1766
Nsg1751
Nsg2876
(I1
tp3338
sg2883
F1.75
sg2841
Nsbsg76
NsS'_labelsize'
p3339
Vx-large
p3340
sS'_name'
p3341
Vxtick
p3342
sS'_grid_linestyle'
p3343
g3283
sS'_labelrotation'
p3344
(Vdefault
p3345
I0
tp3346
sg1766
Nsg1767
g1768
sS'tick1line'
p3347
g0
(g2779
g2
Ntp3348
Rp3349
(dp3350
g6
g7
sg2783
S'butt'
p3351
sg1785
Nsg26
I01
sg2785
Nsg2786
I0
sg220
Nsg221
Nsg30
Nsg17
Nsg36
I00
sg37
(dp3352
sg39
I00
sg1750
Nsg2800
F1.8
sg2801
Nsg2802
g2803
sg2804
g2805
sg1671
Nsg1673
I01
sg2806
(I0
tp3353
sg34
I0
sg1689
I01
sg2813
I01
sg2814
I01
sg76
g218
sg2815
Nsg2108
F2.01
sg1767
g1768
sg2816
I5
sg14
g4
sg2817
Nsg16
Nsg42
Nsg23
g24
sg2819
S'round'
p3354
sg29
Nsg31
Nsg35
I00
sg2821
Nsg41
Nsg2822
Nsg2823
g0
(g2824
g2
Ntp3355
Rp3356
(dp3357
g2823
I3
sg2829
Nsg2830
F1.0
sg76
g0
(g77
g2
Ntp3358
Rp3359
(dp3360
g52
I2
sg81
Nsg82
g54
(g55
(I0
tp3361
g57
tp3362
Rp3363
(I1
(I3
I3
tp3364
g64
I00
S'\x00\x00\x00\x00\x00\x00\xf0?\x00\x00\x00\x00\x00\x00\x00\x00\x00\x00\x00\x00\x00\x00\x00\x00\x00\x00\x00\x00\x00\x00\x00\x00\x00\x00\x00\x00\x00\x00\xf0\xbf\x00\x00\x00\x00\x00\x00\x00\x00\x00\x00\x00\x00\x00\x00\x00\x00\x00\x00\x00\x00\x00\x00\x00\x00\x00\x00\x00\x00\x00\x00\xf0?'
p3365
tp3366
bsg89
g7
sg69
(dp3367
sbsg2835
I00
sg2836
g2837
sg2838
Nsg2441
g2839
sg2148
g2840
sg2841
g3322
sbsg2850
g2851
sg43
Nsg40
Nsg2852
I01
sg2853
Nsg2860
VNone
p3368
sg1675
g0
(g1676
g1677
((lp3369
(lp3370
tp3371
tp3372
Rp3373
sg2866
I00
sg2867
g2868
sg2869
S'projecting'
p3374
sg2871
Nsg1690
Nsg2872
S'round'
p3375
sg2874
F5.5
sg15
I01
sg2818
Nsg1766
Nsg1751
Nsg2876
(I0
tp3376
sg2883
F1.75
sg2841
Nsbsg41
Nsbag0
(g3187
g2
Ntp3377
Rp3378
(dp3379
g6
g7
sg2953
F1.8
sg14
g4
sg3191
I01
sg15
I01
sg1689
I00
sg16
Nsg34
I0
sg42
Nsg3192
F9.0
sg3193
g1768
sg3180
I01
sg1744
F5.5
sg23
g24
sg3194
g3195
sg3141
g0
(g1728
g2
Ntp3380
Rp3381
(dp3382
g6
g7
sg15
I01
sg14
g4
sg16
Nsg1732
g0
(g1733
g2
Ntp3383
Rp3384
(dp3385
g1737
(lp3386
Vsans-serif
p3387
asg1740
Nsg1741
g1742
sg1743
g1742
sg1744
F14.399999999999999
sg1745
g1742
sg1746
g1742
sbsg42
Nsg23
g24
sg1747
Nsg26
I01
sg29
Nsg220
I0
sg221
I0
sg30
Nsg31
Nsg17
Nsg35
I00
sg36
I00
sg37
(dp3388
sg1749
Nsg39
I00
sg1750
Nsg43
Nsg1751
Nsg1752
Nsg40
Nsg1671
Nsg1673
I01
sg1753
g3205
sg1755
g2092
sg1756
Nsg1675
g0
(g1676
g1677
((lp3389
(lp3390
tp3391
tp3392
Rp3393
sg34
I0
sg1762
Nsg1689
I01
sg1690
Nsg1763
F1.2
sg76
g361
sg1764
I00
sg1765
I00
sg1766
Nsg1767
g1768
sg1769
g3211
sg41
Nsbsg26
I01
sg29
Nsg3212
I00
sg30
Nsg31
Nsg3213
g3214
sg17
Nsg3215
I00
sg35
I00
sg3216
(dp3394
sg36
I00
sg37
(dp3395
sg3219
(I3
I2
tp3396
sg39
I00
sg3221
F2.01
sg1750
g1706
sg3222
I01
sg43
g870
sg1751
Nsg3223
g3381
sg3224
g0
(g1728
g2
Ntp3397
Rp3398
(dp3399
g6
g7
sg15
I01
sg14
g4
sg16
Nsg1732
g0
(g1733
g2
Ntp3400
Rp3401
(dp3402
g1737
(lp3403
Vsans-serif
p3404
asg1740
Nsg1741
g1742
sg1743
g1742
sg1744
F14.399999999999999
sg1745
g1742
sg1746
g1742
sbsg42
Nsg23
g24
sg1747
Nsg26
I01
sg29
Nsg220
I1
sg221
I0
sg30
Nsg31
Nsg17
Nsg35
I00
sg36
I00
sg37
(dp3405
sg1749
Nsg39
I00
sg1750
Nsg43
Nsg1751
Nsg1752
Nsg40
Nsg1671
Nsg1673
I01
sg1753
g3234
sg1755
g2092
sg1756
Nsg1675
g0
(g1676
g1677
((lp3406
(lp3407
tp3408
tp3409
Rp3410
sg34
I0
sg1762
Nsg1689
I01
sg1690
Nsg1763
F1.2
sg76
g352
sg1764
I00
sg1765
I00
sg1766
Nsg1767
g1768
sg1769
g3211
sg41
Nsbsg1671
Nsg3240
I0
sg1673
I01
sg1675
g0
(g1676
g1677
((lp3411
(lp3412
tp3413
tp3414
Rp3415
sg3246
F3.5
sg3247
F0.8
sg3248
F1.0
sg3249
g0
(g2779
g2
Ntp3416
Rp3417
(dp3418
g6
g7
sg15
I01
sg2869
S'projecting'
p3419
sg14
g4
sg2783
S'butt'
p3420
sg1785
Nsg16
Nsg42
Nsg23
g24
sg2819
S'round'
p3421
sg26
I01
sg2785
Nsg29
Nsg220
g54
(g55
(I0
tp3422
g57
tp3423
Rp3424
(I1
(I2
tp3425
g64
I00
S'\x00\x00\x00\x00\x00\x00\x00\x00\x00\x00\x00\x00\x00\x00\xf0?'
p3426
tp3427
bsg221
g54
(g55
(I0
tp3428
g57
tp3429
Rp3430
(I1
(I2
tp3431
g64
I00
S'\x00\x00\x00\x00\x00\x00\x00\x00\x00\x00\x00\x00\x00\x00\x00\x00'
p3432
tp3433
bsg30
Nsg31
Nsg17
Nsg2806
g3268
sg35
I00
sg2821
Nsg36
I00
sg37
(dp3434
sg2817
Nsg39
I00
sg2866
I00
sg1750
Nsg2822
Nsg2800
F1.0
sg2850
g2851
sg2801
Nsg1767
g3214
sg2823
g0
(g2824
g2
Ntp3435
Rp3436
(dp3437
g2823
g2828
sg2829
Nsg2830
Nsg76
g0
(g280
g2
Ntp3438
Rp3439
(dp3440
g52
I1
sg81
Nsg89
g7
sg69
(dp3441
sbsg2835
I00
sg2836
g2837
sg2838
Nsg2441
g2839
sg2148
g2840
sg2841
g2843
sbsg40
Nsg2802
g2803
sg2852
I01
sg2804
g2805
sg1671
Nsg2874
F0.0
sg1673
I01
sg2853
g54
(g55
(I0
tp3442
g57
tp3443
Rp3444
(I1
(I2
I2
tp3445
g64
I00
S'\x00\x00\x00\x00\x00\x00\x00\x00\x00\x00\x00\x00\x00\x00\x00\x00\x00\x00\x00\x00\x00\x00\x00\x00\x00\x00\x00\x00\x00\x00\xf0?'
p3446
tp3447
bsg2860
g3283
sg1675
g0
(g1676
g1677
((lp3448
(lp3449
tp3450
tp3451
Rp3452
sg34
I0
sg2867
g2868
sg2786
I0
sg2871
Nsg2816
I5
sg1689
I01
sg1690
F1.0
sg2872
S'round'
p3453
sg2814
I00
sg76
g218
sg2818
Nsg2815
Nsg2813
I00
sg1766
Nsg1751
Nsg2876
g3290
sg43
g940
sg2883
F0.8
sg41
Nsg2841
g0
(g1803
g2
Ntp3454
Rp3455
(dp3456
g1807
I00
sg1808
Nsg1809
g54
(g55
(I0
tp3457
g57
tp3458
Rp3459
(I1
(I2
I2
tp3460
g64
I01
S'\x00\x00\x00\x00\x00\x00\x00\x00\x00\x00\x00\x00\x00\x00\x00\x00\x00\x00\x00\x00\x00\x00\x00\x00\x00\x00\x00\x00\x00\x00\xf0?'
p3461
tp3462
bsg1816
I00
sg1817
F0.1111111111111111
sg1818
I180
sg1819
I00
sbsbsg1690
Nsg40
Nsg3300
g0
(g2779
g2
Ntp3463
Rp3464
(dp3465
g6
g7
sg2783
S'butt'
p3466
sg1785
Nsg26
I01
sg2785
Nsg2786
I0
sg220
Nsg221
Nsg30
Nsg17
Nsg36
I00
sg37
(dp3467
sg39
I00
sg1750
Nsg2800
F1.8
sg2801
Nsg2802
g2803
sg2804
g2805
sg1671
Nsg1673
I01
sg2806
(I0
tp3468
sg34
I0
sg1689
I01
sg2813
I01
sg2814
I01
sg76
g218
sg2815
Nsg2108
F2.01
sg1767
g1768
sg2816
I5
sg14
g4
sg2817
Nsg16
Nsg42
Nsg23
g24
sg2819
S'round'
p3469
sg29
Nsg31
Nsg35
I00
sg2821
Nsg41
Nsg2822
Nsg2823
g0
(g2824
g2
Ntp3470
Rp3471
(dp3472
g2823
I2
sg2829
Nsg2830
F1.0
sg76
g0
(g77
g2
Ntp3473
Rp3474
(dp3475
g52
I2
sg81
Nsg82
g54
(g55
(I0
tp3476
g57
tp3477
Rp3478
(I1
(I3
I3
tp3479
g64
I00
S'\x00\x00\x00\x00\x00\x00\xf0?\x00\x00\x00\x00\x00\x00\x00\x00\x00\x00\x00\x00\x00\x00\x00\x00\x00\x00\x00\x00\x00\x00\x00\x00\x00\x00\x00\x00\x00\x00\xf0?\x00\x00\x00\x00\x00\x00\x00\x00\x00\x00\x00\x00\x00\x00\x00\x00\x00\x00\x00\x00\x00\x00\x00\x00\x00\x00\x00\x00\x00\x00\xf0?'
p3480
tp3481
bsg89
g7
sg69
(dp3482
sbsg2835
I00
sg2836
g2837
sg2838
Nsg2441
g2839
sg2148
g2840
sg2841
g3322
sbsg2850
g2851
sg43
Nsg40
Nsg2852
I01
sg2853
Nsg2860
g3330
sg1675
g0
(g1676
g1677
((lp3483
(lp3484
tp3485
tp3486
Rp3487
sg2866
I00
sg2867
g2868
sg2869
S'projecting'
p3488
sg2871
Nsg1690
Nsg2872
S'round'
p3489
sg2874
F5.5
sg15
I01
sg2818
Nsg1766
Nsg1751
Nsg2876
g3338
sg2883
F1.75
sg2841
Nsbsg76
Nsg3339
g3340
sg3341
g3342
sg3343
g3283
sg3344
(g3345
I0
tp3490
sg1766
Nsg1767
g1768
sg3347
g0
(g2779
g2
Ntp3491
Rp3492
(dp3493
g6
g7
sg2783
S'butt'
p3494
sg1785
Nsg26
I01
sg2785
Nsg2786
I0
sg220
Nsg221
Nsg30
Nsg17
Nsg36
I00
sg37
(dp3495
sg39
I00
sg1750
Nsg2800
F1.8
sg2801
Nsg2802
g2803
sg2804
g2805
sg1671
Nsg1673
I01
sg2806
(I0
tp3496
sg34
I0
sg1689
I01
sg2813
I01
sg2814
I01
sg76
g218
sg2815
Nsg2108
F2.01
sg1767
g1768
sg2816
I5
sg14
g4
sg2817
Nsg16
Nsg42
Nsg23
g24
sg2819
S'round'
p3497
sg29
Nsg31
Nsg35
I00
sg2821
Nsg41
Nsg2822
Nsg2823
g0
(g2824
g2
Ntp3498
Rp3499
(dp3500
g2823
I3
sg2829
Nsg2830
F1.0
sg76
g0
(g77
g2
Ntp3501
Rp3502
(dp3503
g52
I2
sg81
Nsg82
g54
(g55
(I0
tp3504
g57
tp3505
Rp3506
(I1
(I3
I3
tp3507
g64
I00
S'\x00\x00\x00\x00\x00\x00\xf0?\x00\x00\x00\x00\x00\x00\x00\x00\x00\x00\x00\x00\x00\x00\x00\x00\x00\x00\x00\x00\x00\x00\x00\x00\x00\x00\x00\x00\x00\x00\xf0\xbf\x00\x00\x00\x00\x00\x00\x00\x00\x00\x00\x00\x00\x00\x00\x00\x00\x00\x00\x00\x00\x00\x00\x00\x00\x00\x00\x00\x00\x00\x00\xf0?'
p3508
tp3509
bsg89
g7
sg69
(dp3510
sbsg2835
I00
sg2836
g2837
sg2838
Nsg2441
g2839
sg2148
g2840
sg2841
g3322
sbsg2850
g2851
sg43
Nsg40
Nsg2852
I01
sg2853
Nsg2860
g3368
sg1675
g0
(g1676
g1677
((lp3511
(lp3512
tp3513
tp3514
Rp3515
sg2866
I00
sg2867
g2868
sg2869
S'projecting'
p3516
sg2871
Nsg1690
Nsg2872
S'round'
p3517
sg2874
F5.5
sg15
I01
sg2818
Nsg1766
Nsg1751
Nsg2876
g3376
sg2883
F1.75
sg2841
Nsbsg41
NsbasS'isDefault_majloc'
p3518
I01
sg1664
g0
(g1665
g2
Ntp3519
Rp3520
(dp3521
g1669
g1670
sbsg1671
Nsg1673
I01
sS'_autolabelpos'
p3522
I01
sg1675
g0
(g1676
g1677
((lp3523
(lp3524
tp3525
tp3526
Rp3527
sg34
I0
sS'converter'
p3528
Nsg1689
I00
sg1690
NsS'offset_text_position'
p3529
Vbottom
p3530
sg76
NsS'label_position'
p3531
Vbottom
p3532
sg1766
Nsg1751
Nsg2816
I15
sS'minorTicks'
p3533
(lp3534
g0
(g3187
g2
Ntp3535
Rp3536
(dp3537
g6
g7
sg2953
F0.6
sg14
g4
sg3191
I01
sg15
I01
sg1689
I00
sg16
Nsg34
I0
sg42
Nsg3192
F7.4
sg3193
g1768
sg3180
I00
sg1744
F4.0
sg23
g24
sg3194
g3195
sg3141
g0
(g1728
g2
Ntp3538
Rp3539
(dp3540
g6
g7
sg15
I01
sg14
g4
sg16
Nsg1732
g0
(g1733
g2
Ntp3541
Rp3542
(dp3543
g1737
(lp3544
Vsans-serif
p3545
asg1740
Nsg1741
g1742
sg1743
g1742
sg1744
F14.399999999999999
sg1745
g1742
sg1746
g1742
sbsg42
Nsg23
g24
sg1747
Nsg26
I01
sg29
Nsg220
I0
sg221
I0
sg30
Nsg31
Nsg17
Nsg35
I00
sg36
I00
sg37
(dp3546
sg1749
Nsg39
I00
sg1750
Nsg43
Nsg1751
Nsg1752
Nsg40
Nsg1671
Nsg1673
I01
sg1753
g3205
sg1755
g2092
sg1756
Nsg1675
g0
(g1676
g1677
((lp3547
(lp3548
tp3549
tp3550
Rp3551
sg34
I0
sg1762
Nsg1689
I01
sg1690
Nsg1763
F1.2
sg76
g397
sg1764
I00
sg1765
I00
sg1766
Nsg1767
g1768
sg1769
g3211
sg41
Nsbsg26
I01
sg29
Nsg3212
I00
sg30
Nsg31
Nsg3213
g3214
sg17
Nsg3215
I00
sg35
I00
sg3216
(dp3552
sg36
I00
sg37
(dp3553
sg3219
(I3
I2
tp3554
sg39
I00
sg3221
I2
sg1750
g1706
sg3222
I01
sg43
g1236
sg1751
Nsg3223
g3539
sg3224
g0
(g1728
g2
Ntp3555
Rp3556
(dp3557
g6
g7
sg15
I01
sg14
g4
sg16
Nsg1732
g0
(g1733
g2
Ntp3558
Rp3559
(dp3560
g1737
(lp3561
Vsans-serif
p3562
asg1740
Nsg1741
g1742
sg1743
g1742
sg1744
F14.399999999999999
sg1745
g1742
sg1746
g1742
sbsg42
Nsg23
g24
sg1747
Nsg26
I01
sg29
Nsg220
I1
sg221
I0
sg30
Nsg31
Nsg17
Nsg35
I00
sg36
I00
sg37
(dp3563
sg1749
Nsg39
I00
sg1750
Nsg43
Nsg1751
Nsg1752
Nsg40
Nsg1671
Nsg1673
I01
sg1753
g3234
sg1755
g2092
sg1756
Nsg1675
g0
(g1676
g1677
((lp3564
(lp3565
tp3566
tp3567
Rp3568
sg34
I0
sg1762
Nsg1689
I01
sg1690
Nsg1763
F1.2
sg76
g379
sg1764
I00
sg1765
I00
sg1766
Nsg1767
g1768
sg1769
g3211
sg41
Nsbsg1671
Nsg3240
I0
sg1673
I01
sg1675
g0
(g1676
g1677
((lp3569
(lp3570
tp3571
tp3572
Rp3573
sg3246
F3.4
sg3247
F0.8
sg3248
F1.0
sg3249
g0
(g2779
g2
Ntp3574
Rp3575
(dp3576
g6
g7
sg15
I01
sg2869
S'projecting'
p3577
sg14
g4
sg2783
S'butt'
p3578
sg1785
Nsg16
Nsg42
Nsg23
g24
sg2819
S'round'
p3579
sg26
I01
sg2785
Nsg29
Nsg220
g54
(g55
(I0
tp3580
g57
tp3581
Rp3582
(I1
(I2
tp3583
g64
I00
S'\x00\x00\x00\x00\x00\x00\x00\x00\x00\x00\x00\x00\x00\x00\xf0?'
p3584
tp3585
bsg221
g54
(g55
(I0
tp3586
g57
tp3587
Rp3588
(I1
(I2
tp3589
g64
I00
S'\x00\x00\x00\x00\x00\x00\x00\x00\x00\x00\x00\x00\x00\x00\x00\x00'
p3590
tp3591
bsg30
Nsg31
Nsg17
Nsg2806
g3268
sg35
I00
sg2821
Nsg36
I00
sg37
(dp3592
sg2817
Nsg39
I00
sg2866
I00
sg1750
Nsg2822
Nsg2800
F1.0
sg2850
g2851
sg2801
Nsg1767
g3214
sg2823
g0
(g2824
g2
Ntp3593
Rp3594
(dp3595
g2823
g2828
sg2829
Nsg2830
Nsg76
g0
(g280
g2
Ntp3596
Rp3597
(dp3598
g52
I1
sg81
Nsg89
g7
sg69
(dp3599
sbsg2835
I00
sg2836
g2837
sg2838
Nsg2441
g2839
sg2148
g2840
sg2841
g2843
sbsg40
Nsg2802
g2803
sg2852
I01
sg2804
g2805
sg1671
Nsg2874
F0.0
sg1673
I01
sg2853
g54
(g55
(I0
tp3600
g57
tp3601
Rp3602
(I1
(I2
I2
tp3603
g64
I00
S'\x00\x00\x00\x00\x00\x00\x00\x00\x00\x00\x00\x00\x00\x00\x00\x00\x00\x00\x00\x00\x00\x00\x00\x00\x00\x00\x00\x00\x00\x00\xf0?'
p3604
tp3605
bsg2860
g3283
sg1675
g0
(g1676
g1677
((lp3606
(lp3607
tp3608
tp3609
Rp3610
sg34
I0
sg2867
g2868
sg2786
I0
sg2871
Nsg2816
I5
sg1689
I01
sg1690
F1.0
sg2872
S'round'
p3611
sg2814
I00
sg76
g218
sg2818
Nsg2815
Nsg2813
I00
sg1766
Nsg1751
Nsg2876
g3290
sg43
g1376
sg2883
F0.8
sg41
Nsg2841
g0
(g1803
g2
Ntp3612
Rp3613
(dp3614
g1807
I00
sg1808
Nsg1809
g54
(g55
(I0
tp3615
g57
tp3616
Rp3617
(I1
(I2
I2
tp3618
g64
I01
S'\x00\x00\x00\x00\x00\x00\x00\x00\x00\x00\x00\x00\x00\x00\x00\x00\x00\x00\x00\x00\x00\x00\x00\x00\x00\x00\x00\x00\x00\x00\xf0?'
p3619
tp3620
bsg1816
I00
sg1817
F0.1111111111111111
sg1818
I180
sg1819
I00
sbsbsg1690
Nsg40
Nsg3300
g0
(g2779
g2
Ntp3621
Rp3622
(dp3623
g6
g7
sg2783
S'butt'
p3624
sg1785
Nsg26
I01
sg2785
Nsg2786
I0
sg220
Nsg221
Nsg30
Nsg17
Nsg36
I00
sg37
(dp3625
sg39
I00
sg1750
Nsg2800
F0.6
sg2801
Nsg2802
g2803
sg2804
g2805
sg1671
Nsg1673
I01
sg2806
(I0
tp3626
sg34
I0
sg1689
I01
sg2813
I01
sg2814
I01
sg76
g218
sg2815
Nsg2108
I2
sg1767
g1768
sg2816
I5
sg14
g4
sg2817
Nsg16
Nsg42
Nsg23
g24
sg2819
S'round'
p3627
sg29
Nsg31
Nsg35
I00
sg2821
Nsg41
Nsg2822
Nsg2823
g0
(g2824
g2
Ntp3628
Rp3629
(dp3630
g2823
I2
sg2829
Nsg2830
F1.0
sg76
g0
(g77
g2
Ntp3631
Rp3632
(dp3633
g52
I2
sg81
Nsg82
g54
(g55
(I0
tp3634
g57
tp3635
Rp3636
(I1
(I3
I3
tp3637
g64
I00
S'\x00\x00\x00\x00\x00\x00\xf0?\x00\x00\x00\x00\x00\x00\x00\x00\x00\x00\x00\x00\x00\x00\x00\x00\x00\x00\x00\x00\x00\x00\x00\x00\x00\x00\x00\x00\x00\x00\xf0?\x00\x00\x00\x00\x00\x00\x00\x00\x00\x00\x00\x00\x00\x00\x00\x00\x00\x00\x00\x00\x00\x00\x00\x00\x00\x00\x00\x00\x00\x00\xf0?'
p3638
tp3639
bsg89
g7
sg69
(dp3640
sbsg2835
I00
sg2836
g2837
sg2838
Nsg2441
g2839
sg2148
g2840
sg2841
g3322
sbsg2850
g2851
sg43
Nsg40
Nsg2852
I01
sg2853
Nsg2860
g3330
sg1675
g0
(g1676
g1677
((lp3641
(lp3642
tp3643
tp3644
Rp3645
sg2866
I00
sg2867
g2868
sg2869
S'projecting'
p3646
sg2871
Nsg1690
Nsg2872
S'round'
p3647
sg2874
F4.0
sg15
I01
sg2818
Nsg1766
Nsg1751
Nsg2876
g3338
sg2883
F1.75
sg2841
Nsbsg76
Nsg3339
g3340
sg3341
g3342
sg3343
g3283
sg3344
(g3345
I0
tp3648
sg1766
Nsg1767
g1768
sg3347
g0
(g2779
g2
Ntp3649
Rp3650
(dp3651
g6
g7
sg2783
S'butt'
p3652
sg1785
Nsg26
I01
sg2785
Nsg2786
I0
sg220
Nsg221
Nsg30
Nsg17
Nsg36
I00
sg37
(dp3653
sg39
I00
sg1750
Nsg2800
F0.6
sg2801
Nsg2802
g2803
sg2804
g2805
sg1671
Nsg1673
I01
sg2806
(I0
tp3654
sg34
I0
sg1689
I01
sg2813
I01
sg2814
I01
sg76
g218
sg2815
Nsg2108
I2
sg1767
g1768
sg2816
I5
sg14
g4
sg2817
Nsg16
Nsg42
Nsg23
g24
sg2819
S'round'
p3655
sg29
Nsg31
Nsg35
I00
sg2821
Nsg41
Nsg2822
Nsg2823
g0
(g2824
g2
Ntp3656
Rp3657
(dp3658
g2823
I3
sg2829
Nsg2830
F1.0
sg76
g0
(g77
g2
Ntp3659
Rp3660
(dp3661
g52
I2
sg81
Nsg82
g54
(g55
(I0
tp3662
g57
tp3663
Rp3664
(I1
(I3
I3
tp3665
g64
I00
S'\x00\x00\x00\x00\x00\x00\xf0?\x00\x00\x00\x00\x00\x00\x00\x00\x00\x00\x00\x00\x00\x00\x00\x00\x00\x00\x00\x00\x00\x00\x00\x00\x00\x00\x00\x00\x00\x00\xf0\xbf\x00\x00\x00\x00\x00\x00\x00\x00\x00\x00\x00\x00\x00\x00\x00\x00\x00\x00\x00\x00\x00\x00\x00\x00\x00\x00\x00\x00\x00\x00\xf0?'
p3666
tp3667
bsg89
g7
sg69
(dp3668
sbsg2835
I00
sg2836
g2837
sg2838
Nsg2441
g2839
sg2148
g2840
sg2841
g3322
sbsg2850
g2851
sg43
Nsg40
Nsg2852
I01
sg2853
Nsg2860
g3368
sg1675
g0
(g1676
g1677
((lp3669
(lp3670
tp3671
tp3672
Rp3673
sg2866
I00
sg2867
g2868
sg2869
S'projecting'
p3674
sg2871
Nsg1690
Nsg2872
S'round'
p3675
sg2874
F4.0
sg15
I01
sg2818
Nsg1766
Nsg1751
Nsg2876
g3376
sg2883
F1.75
sg2841
Nsbsg41
Nsbasg41
NsS'_minor_tick_kw'
p3676
(dp3677
g3177
I01
sg3178
I01
sg3179
I00
sg3181
I00
ssS'isDefault_minfmt'
p3678
I01
sbsS'_navigate_mode'
p3679
Nsg41
NsS'transAxes'
p3680
g107
sS'_connected'
p3681
(dp3682
sS'fmt_ydata'
p3683
NsS'dataLim'
p3684
g0
(g48
g2
Ntp3685
Rp3686
(dp3687
g52
I0
sg53
g54
(g55
(I0
tp3688
g57
tp3689
Rp3690
(I1
(I2
tp3691
g64
I00
S'\xf1A\x92=\xb5\xb9\xd9?\x9ak\xfdL\x06\xcd\xd3?'
p3692
tp3693
bsg69
(dp3694
sg123
g54
(g55
(I0
tp3695
g57
tp3696
Rp3697
(I1
(I2
I2
tp3698
g64
I00
S'\x00\x00\x00\x00\x00\x00\xf0\x7f\x00\x00\x00\x00\x00\x00\xf0\x7f\x00\x00\x00\x00\x00\x00\xf0\xff\x00\x00\x00\x00\x00\x00\xf0\xff'
p3699
tp3700
bsg130
g54
(g55
(I0
tp3701
g57
tp3702
Rp3703
(I1
(I2
I2
tp3704
g64
I00
S'\x00\x00\x00\x00\x00\x00\x00\x00\x00\x00\x00\x00\x00\x00\x00\x00\x00\x00\x00\x00\x00\x00\x00@\x00\x00\x00\x00\x00\x00\x00@'
p3705
tp3706
bsg137
I01
sg89
g7
sbsS'transData'
p3707
g223
sg40
NsS'_sharey'
p3708
NsS'_sharex'
p3709
NsS'_ymargin'
p3710
F0.05
sS'_axes_locator'
p3711
Nsg1675
g0
(g1676
g1677
((lp3712
(lp3713
tp3714
tp3715
Rp3716
sS'numCols'
p3717
I1
sg1690
Nsg1672
NsS'yaxis'
p3718
g0
(cmatplotlib.axis
YAxis
p3719
g2
Ntp3720
Rp3721
(dp3722
g6
g7
sg3071
g0
(g3072
g2
Ntp3723
Rp3724
(dp3725
g3076
g0
(g3077
g2
Ntp3726
Rp3727
(dp3728
g3081
I2
sg3082
I00
sg3083
g3084
sg3085
g54
(g55
(I0
tp3729
g57
tp3730
Rp3731
(I1
(I5
tp3732
g64
I00
S'\x00\x00\x00\x00\x00\x00\xf0?\x00\x00\x00\x00\x00\x00\x00@\x00\x00\x00\x00\x00\x00\x04@\x00\x00\x00\x00\x00\x00\x14@\x00\x00\x00\x00\x00\x00$@'
p3733
tp3734
bsg3092
Nsg3093
g54
(g55
(I0
tp3735
g57
tp3736
Rp3737
(I1
(I10
tp3738
g64
I00
S'\x9a\x99\x99\x99\x99\x99\xb9?\x9a\x99\x99\x99\x99\x99\xc9?\x00\x00\x00\x00\x00\x00\xd0?\x00\x00\x00\x00\x00\x00\xe0?\x00\x00\x00\x00\x00\x00\xf0?\x00\x00\x00\x00\x00\x00\x00@\x00\x00\x00\x00\x00\x00\x04@\x00\x00\x00\x00\x00\x00\x14@\x00\x00\x00\x00\x00\x00$@\x00\x00\x00\x00\x00\x004@'
p3739
tp3740
bsg3100
I00
sg3101
g3721
sbsg3102
g0
(g3103
g2
Ntp3741
Rp3742
(dp3743
g3107
g3108
sg3109
I0
sg3110
I01
sg3111
I00
sg3112
g7
sg3113
I00
sg3114
I4
sg3115
I0
sg1764
I00
sg3116
I01
sg3101
g3721
sbsbsg3117
I00
sg3118
g0
(g3119
g2
Ntp3744
Rp3745
sg14
g4
sg15
I01
sg3122
I00
sg16
Nsg42
Nsg3123
I00
sg23
g24
sg26
I01
sg29
Nsg3124
g0
(g1728
g2
Ntp3746
Rp3747
(dp3748
g6
g7
sg15
I01
sg14
g4
sg16
Nsg1732
g0
(g1733
g2
Ntp3749
Rp3750
(dp3751
g1737
(lp3752
Vsans-serif
p3753
asg1740
Nsg1741
g1742
sg1743
g1742
sg1744
F14.399999999999999
sg1745
g1742
sg1746
g1742
sbsg42
Nsg23
g24
sg1747
Nsg26
I01
sg29
Nsg220
F0.5
sg221
I0
sg30
Nsg31
Nsg17
Nsg35
I00
sg36
I00
sg37
(dp3754
sg1749
Nsg39
I00
sg1750
Nsg43
Nsg1751
Nsg1752
Nsg40
Nsg1671
Nsg1673
I01
sg1753
Vbaseline
p3755
sg1755
g2092
sg1756
Nsg1675
g0
(g1676
g1677
((lp3756
(lp3757
tp3758
tp3759
Rp3760
sg34
I0
sg1762
Nsg1689
I01
sg1690
Nsg1763
F1.2
sg76
g1550
sg1764
I00
sg1765
I00
sg1766
Nsg1767
g1768
sg1769
Vleft
p3761
sg41
Nsbsg30
Nsg31
Nsg17
Nsg3141
g0
(g1728
g2
Ntp3762
Rp3763
(dp3764
g6
g7
sg15
I01
sg14
g4
sg16
Nsg1732
g0
(g1733
g2
Ntp3765
Rp3766
(dp3767
g1737
(lp3768
Vsans-serif
p3769
asg1740
Nsg1741
g1742
sg1743
g1742
sg1744
F17.28
sg1745
g3150
sg1746
g1742
sbsg42
Nsg23
g24
sg1747
Nsg26
I01
sg29
Nsg220
F0.5
sg221
I0
sg30
Nsg31
Nsg17
Nsg35
I00
sg36
I00
sg37
(dp3770
sg1749
Nsg39
I00
sg1750
Nsg43
Nsg1751
Nsg1752
Vanchor
p3771
sg40
Nsg1671
Nsg1673
I01
sg1753
Vbottom
p3772
sg1755
S'$V_{cmax}^{O_3}/V_{cmax}^{CF}$'
p3773
sg1756
Nsg1675
g0
(g1676
g1677
((lp3774
(lp3775
tp3776
tp3777
Rp3778
sg34
I0
sg1762
Vvertical
p3779
sg1689
I01
sg1690
Nsg1763
F1.2
sg76
g1472
sg1764
I00
sg1765
I00
sg1766
Nsg1767
g1768
sg1769
Vcenter
p3780
sg41
Nsbsg35
I00
sg3160
I01
sg36
I00
sg37
(dp3781
sg3162
Nsg39
I00
sg3163
g0
(g3072
g2
Ntp3782
Rp3783
(dp3784
g3076
g0
(g3167
g2
Ntp3785
Rp3786
(dp3787
g3101
g3721
sbsg3102
g0
(g3171
g2
Ntp3788
Rp3789
(dp3790
g3101
g3721
sbsbsg1750
g1706
sg3175
(dp3791
g3177
I01
sg3178
I01
sg3179
I00
sg3180
I01
sg3181
I00
ssg3182
I01
sg43
g800
sg40
Nsg3183
I01
sg3184
F4.0
sg3185
(lp3792
g0
(cmatplotlib.axis
YTick
p3793
g2
Ntp3794
Rp3795
(dp3796
g6
g7
sg2953
F1.8
sg14
g4
sg3191
I01
sg15
I01
sg1689
I00
sg16
Nsg34
I0
sg42
Nsg3192
F9.0
sg3193
g1768
sg3180
I01
sg1744
F5.5
sg23
g24
sg3194
g3195
sg3141
g0
(g1728
g2
Ntp3797
Rp3798
(dp3799
g6
g7
sg15
I01
sg14
g4
sg16
Nsg1732
g0
(g1733
g2
Ntp3800
Rp3801
(dp3802
g1737
(lp3803
Vsans-serif
p3804
asg1740
Nsg1741
g1742
sg1743
g1742
sg1744
F14.399999999999999
sg1745
g1742
sg1746
g1742
sbsg42
Nsg23
g24
sg1747
Nsg26
I01
sg29
Nsg220
I0
sg221
I0
sg30
Nsg31
Nsg17
Nsg35
I00
sg36
I00
sg37
(dp3805
sg1749
Nsg39
I00
sg1750
Nsg43
Nsg1751
Nsg1752
Nsg40
Nsg1671
Nsg1673
I01
sg1753
S'center_baseline'
p3806
sg1755
g2092
sg1756
Nsg1675
g0
(g1676
g1677
((lp3807
(lp3808
tp3809
tp3810
Rp3811
sg34
I0
sg1762
Nsg1689
I01
sg1690
Nsg1763
F1.2
sg76
g306
sg1764
I00
sg1765
I00
sg1766
Nsg1767
g1768
sg1769
Vright
p3812
sg41
Nsbsg26
I01
sg29
Nsg3212
I00
sg30
Nsg31
Nsg3213
g3214
sg17
Nsg3215
I00
sg35
I00
sg3216
(dp3813
sg36
I00
sg37
(dp3814
sg3219
(I0
I1
tp3815
sg39
I00
sg3221
F2.01
sg1750
g1706
sg3222
I01
sg43
g730
sg1751
Nsg3223
g3798
sg3224
g0
(g1728
g2
Ntp3816
Rp3817
(dp3818
g6
g7
sg15
I01
sg14
g4
sg16
Nsg1732
g0
(g1733
g2
Ntp3819
Rp3820
(dp3821
g1737
(lp3822
Vsans-serif
p3823
asg1740
Nsg1741
g1742
sg1743
g1742
sg1744
F14.399999999999999
sg1745
g1742
sg1746
g1742
sbsg42
Nsg23
g24
sg1747
Nsg26
I01
sg29
Nsg220
I0
sg221
I1
sg30
Nsg31
Nsg17
Nsg35
I00
sg36
I00
sg37
(dp3824
sg1749
Nsg39
I00
sg1750
Nsg43
Nsg1751
Nsg1752
Nsg40
Nsg1671
Nsg1673
I01
sg1753
g3806
sg1755
g2092
sg1756
Nsg1675
g0
(g1676
g1677
((lp3825
(lp3826
tp3827
tp3828
Rp3829
sg34
I0
sg1762
Nsg1689
I01
sg1690
Nsg1763
F1.2
sg76
g324
sg1764
I00
sg1765
I00
sg1766
Nsg1767
g1768
sg1769
Vleft
p3830
sg41
Nsbsg1671
Nsg3240
I0
sg1673
I01
sg1675
g0
(g1676
g1677
((lp3831
(lp3832
tp3833
tp3834
Rp3835
sg3246
F3.5
sg3247
F0.8
sg3248
F1.0
sg3249
g0
(g2779
g2
Ntp3836
Rp3837
(dp3838
g6
g7
sg15
I01
sg2869
S'projecting'
p3839
sg14
g4
sg2783
S'butt'
p3840
sg1785
Nsg16
Nsg42
Nsg23
g24
sg2819
S'round'
p3841
sg26
I01
sg2785
Nsg29
Nsg220
g54
(g55
(I0
tp3842
g57
tp3843
Rp3844
(I1
(I2
tp3845
g64
I00
S'\x00\x00\x00\x00\x00\x00\x00\x00\x00\x00\x00\x00\x00\x00\x00\x00'
p3846
tp3847
bsg221
g54
(g55
(I0
tp3848
g57
tp3849
Rp3850
(I1
(I2
tp3851
g64
I00
S'\x00\x00\x00\x00\x00\x00\x00\x00\x00\x00\x00\x00\x00\x00\xf0?'
p3852
tp3853
bsg30
Nsg31
Nsg17
Nsg2806
(I0
I1
tp3854
sg35
I00
sg2821
Nsg36
I00
sg37
(dp3855
sg2817
Nsg39
I00
sg2866
I00
sg1750
Nsg2822
Nsg2800
F1.0
sg2850
g2851
sg2801
Nsg1767
g3214
sg2823
g0
(g2824
g2
Ntp3856
Rp3857
(dp3858
g2823
g2828
sg2829
Nsg2830
Nsg76
g0
(g280
g2
Ntp3859
Rp3860
(dp3861
g52
I1
sg81
Nsg89
g7
sg69
(dp3862
sbsg2835
I00
sg2836
g2837
sg2838
Nsg2441
g2839
sg2148
g2840
sg2841
g2843
sbsg40
Nsg2802
g2803
sg2852
I01
sg2804
g2805
sg1671
Nsg2874
F0.0
sg1673
I01
sg2853
g54
(g55
(I0
tp3863
g57
tp3864
Rp3865
(I1
(I2
I2
tp3866
g64
I00
S'\x00\x00\x00\x00\x00\x00\x00\x00\x00\x00\x00\x00\x00\x00\x00\x00\x00\x00\x00\x00\x00\x00\xf0?\x00\x00\x00\x00\x00\x00\x00\x00'
p3867
tp3868
bsg2860
g3283
sg1675
g0
(g1676
g1677
((lp3869
(lp3870
tp3871
tp3872
Rp3873
sg34
I0
sg2867
g2868
sg2786
I0
sg2871
Nsg2816
I5
sg1689
I01
sg1690
F1.0
sg2872
S'round'
p3874
sg2814
I00
sg76
g292
sg2818
Nsg2815
Nsg2813
I00
sg1766
Nsg1751
Nsg2876
(I0
I0
tp3875
sg43
g450
sg2883
F0.8
sg41
Nsg2841
g0
(g1803
g2
Ntp3876
Rp3877
(dp3878
g1807
I00
sg1808
Nsg1809
g54
(g55
(I0
tp3879
g57
tp3880
Rp3881
(I1
(I2
I2
tp3882
g64
I01
S'\x00\x00\x00\x00\x00\x00\x00\x00\x00\x00\x00\x00\x00\x00\xf0?\x00\x00\x00\x00\x00\x00\x00\x00\x00\x00\x00\x00\x00\x00\x00\x00'
p3883
tp3884
bsg1816
I00
sg1817
F0.1111111111111111
sg1818
I180
sg1819
I00
sbsbsg1690
Nsg40
Nsg3300
g0
(g2779
g2
Ntp3885
Rp3886
(dp3887
g6
g7
sg2783
S'butt'
p3888
sg1785
Nsg26
I01
sg2785
Nsg2786
I0
sg220
Nsg221
Nsg30
Nsg17
Nsg36
I00
sg37
(dp3889
sg39
I00
sg1750
Nsg2800
F1.8
sg2801
Nsg2802
g2803
sg2804
g2805
sg1671
Nsg1673
I01
sg2806
(I1
tp3890
sg34
I0
sg1689
I01
sg2813
I01
sg2814
I01
sg76
g292
sg2815
Nsg2108
F2.01
sg1767
g1768
sg2816
I5
sg14
g4
sg2817
Nsg16
Nsg42
Nsg23
g24
sg2819
S'round'
p3891
sg29
Nsg31
Nsg35
I00
sg2821
Nsg41
Nsg2822
Nsg2823
g0
(g2824
g2
Ntp3892
Rp3893
(dp3894
g2823
I1
sg2829
Nsg2830
F1.0
sg76
g0
(g77
g2
Ntp3895
Rp3896
(dp3897
g52
I2
sg81
Nsg82
g54
(g55
(I0
tp3898
g57
tp3899
Rp3900
(I1
(I3
I3
tp3901
g64
I00
S'\x00\x00\x00\x00\x00\x00\xf0?\x00\x00\x00\x00\x00\x00\x00\x00\x00\x00\x00\x00\x00\x00\x00\x00\x00\x00\x00\x00\x00\x00\x00\x00\x00\x00\x00\x00\x00\x00\xf0?\x00\x00\x00\x00\x00\x00\x00\x00\x00\x00\x00\x00\x00\x00\x00\x00\x00\x00\x00\x00\x00\x00\x00\x00\x00\x00\x00\x00\x00\x00\xf0?'
p3902
tp3903
bsg89
g7
sg69
(dp3904
sbsg2835
I00
sg2836
g2837
sg2838
Nsg2441
g2839
sg2148
g2840
sg2841
g0
(g1803
g2
Ntp3905
Rp3906
(dp3907
g1807
I00
sg1808
Nsg1809
g54
(g55
(I0
tp3908
g57
tp3909
Rp3910
(I1
(I2
I2
tp3911
g64
I00
S'\x00\x00\x00\x00\x00\x00\x00\x00\x00\x00\x00\x00\x00\x00\x00\x00\x00\x00\x00\x00\x00\x00\xf0?\x00\x00\x00\x00\x00\x00\x00\x00'
p3912
tp3913
bsg1816
I00
sg1817
F0.1111111111111111
sg1818
I1
sg1819
I00
sbsbsg2850
g2851
sg43
Nsg40
Nsg2852
I01
sg2853
Nsg2860
VNone
p3914
sg1675
g0
(g1676
g1677
((lp3915
(lp3916
tp3917
tp3918
Rp3919
sg2866
I00
sg2867
g2868
sg2869
S'projecting'
p3920
sg2871
Nsg1690
Nsg2872
S'round'
p3921
sg2874
F5.5
sg15
I01
sg2818
Nsg1766
Nsg1751
Nsg2876
(I0
tp3922
sg2883
F1.75
sg2841
Nsbsg76
Nsg3339
Vx-large
p3923
sg3341
Vytick
p3924
sg3343
g3283
sg3344
(g3345
I0
tp3925
sg1766
Nsg1767
g1768
sg3347
g0
(g2779
g2
Ntp3926
Rp3927
(dp3928
g6
g7
sg2783
S'butt'
p3929
sg1785
Nsg26
I01
sg2785
Nsg2786
I0
sg220
Nsg221
Nsg30
Nsg17
Nsg36
I00
sg37
(dp3930
sg39
I00
sg1750
Nsg2800
F1.8
sg2801
Nsg2802
g2803
sg2804
g2805
sg1671
Nsg1673
I01
sg2806
(I0
tp3931
sg34
I0
sg1689
I01
sg2813
I01
sg2814
I01
sg76
g292
sg2815
Nsg2108
F2.01
sg1767
g1768
sg2816
I5
sg14
g4
sg2817
Nsg16
Nsg42
Nsg23
g24
sg2819
S'round'
p3932
sg29
Nsg31
Nsg35
I00
sg2821
Nsg41
Nsg2822
Nsg2823
g0
(g2824
g2
Ntp3933
Rp3934
(dp3935
g2823
I0
sg2829
Nsg2830
F1.0
sg76
g0
(g77
g2
Ntp3936
Rp3937
(dp3938
g52
I2
sg81
Nsg82
g54
(g55
(I0
tp3939
g57
tp3940
Rp3941
(I1
(I3
I3
tp3942
g64
I00
S'\x00\x00\x00\x00\x00\x00\xf0\xbf\x00\x00\x00\x00\x00\x00\x00\x00\x00\x00\x00\x00\x00\x00\x00\x00\x00\x00\x00\x00\x00\x00\x00\x00\x00\x00\x00\x00\x00\x00\xf0?\x00\x00\x00\x00\x00\x00\x00\x00\x00\x00\x00\x00\x00\x00\x00\x00\x00\x00\x00\x00\x00\x00\x00\x00\x00\x00\x00\x00\x00\x00\xf0?'
p3943
tp3944
bsg89
g7
sg69
(dp3945
sbsg2835
I00
sg2836
g2837
sg2838
Nsg2441
g2839
sg2148
g2840
sg2841
g3906
sbsg2850
g2851
sg43
Nsg40
Nsg2852
I01
sg2853
Nsg2860
VNone
p3946
sg1675
g0
(g1676
g1677
((lp3947
(lp3948
tp3949
tp3950
Rp3951
sg2866
I00
sg2867
g2868
sg2869
S'projecting'
p3952
sg2871
Nsg1690
Nsg2872
S'round'
p3953
sg2874
F5.5
sg15
I01
sg2818
Nsg1766
Nsg1751
Nsg2876
(I0
tp3954
sg2883
F1.75
sg2841
Nsbsg41
Nsbag0
(g3793
g2
Ntp3955
Rp3956
(dp3957
g6
g7
sg2953
F1.8
sg14
g4
sg3191
I01
sg15
I01
sg1689
I00
sg16
Nsg34
I0
sg42
Nsg3192
F9.0
sg3193
g1768
sg3180
I01
sg1744
F5.5
sg23
g24
sg3194
g3195
sg3141
g0
(g1728
g2
Ntp3958
Rp3959
(dp3960
g6
g7
sg15
I01
sg14
g4
sg16
Nsg1732
g0
(g1733
g2
Ntp3961
Rp3962
(dp3963
g1737
(lp3964
Vsans-serif
p3965
asg1740
Nsg1741
g1742
sg1743
g1742
sg1744
F14.399999999999999
sg1745
g1742
sg1746
g1742
sbsg42
Nsg23
g24
sg1747
Nsg26
I01
sg29
Nsg220
I0
sg221
I0
sg30
Nsg31
Nsg17
Nsg35
I00
sg36
I00
sg37
(dp3966
sg1749
Nsg39
I00
sg1750
Nsg43
Nsg1751
Nsg1752
Nsg40
Nsg1671
Nsg1673
I01
sg1753
g3806
sg1755
g2092
sg1756
Nsg1675
g0
(g1676
g1677
((lp3967
(lp3968
tp3969
tp3970
Rp3971
sg34
I0
sg1762
Nsg1689
I01
sg1690
Nsg1763
F1.2
sg76
g342
sg1764
I00
sg1765
I00
sg1766
Nsg1767
g1768
sg1769
g3812
sg41
Nsbsg26
I01
sg29
Nsg3212
I00
sg30
Nsg31
Nsg3213
g3214
sg17
Nsg3215
I00
sg35
I00
sg3216
(dp3972
sg36
I00
sg37
(dp3973
sg3219
(I0
I1
tp3974
sg39
I00
sg3221
F2.01
sg1750
g1706
sg3222
I01
sg43
g1010
sg1751
Nsg3223
g3959
sg3224
g0
(g1728
g2
Ntp3975
Rp3976
(dp3977
g6
g7
sg15
I01
sg14
g4
sg16
Nsg1732
g0
(g1733
g2
Ntp3978
Rp3979
(dp3980
g1737
(lp3981
Vsans-serif
p3982
asg1740
Nsg1741
g1742
sg1743
g1742
sg1744
F14.399999999999999
sg1745
g1742
sg1746
g1742
sbsg42
Nsg23
g24
sg1747
Nsg26
I01
sg29
Nsg220
I0
sg221
I1
sg30
Nsg31
Nsg17
Nsg35
I00
sg36
I00
sg37
(dp3983
sg1749
Nsg39
I00
sg1750
Nsg43
Nsg1751
Nsg1752
Nsg40
Nsg1671
Nsg1673
I01
sg1753
g3806
sg1755
g2092
sg1756
Nsg1675
g0
(g1676
g1677
((lp3984
(lp3985
tp3986
tp3987
Rp3988
sg34
I0
sg1762
Nsg1689
I01
sg1690
Nsg1763
F1.2
sg76
g333
sg1764
I00
sg1765
I00
sg1766
Nsg1767
g1768
sg1769
g3830
sg41
Nsbsg1671
Nsg3240
I0
sg1673
I01
sg1675
g0
(g1676
g1677
((lp3989
(lp3990
tp3991
tp3992
Rp3993
sg3246
F3.5
sg3247
F0.8
sg3248
F1.0
sg3249
g0
(g2779
g2
Ntp3994
Rp3995
(dp3996
g6
g7
sg15
I01
sg2869
S'projecting'
p3997
sg14
g4
sg2783
S'butt'
p3998
sg1785
Nsg16
Nsg42
Nsg23
g24
sg2819
S'round'
p3999
sg26
I01
sg2785
Nsg29
Nsg220
g54
(g55
(I0
tp4000
g57
tp4001
Rp4002
(I1
(I2
tp4003
g64
I00
S'\x00\x00\x00\x00\x00\x00\x00\x00\x00\x00\x00\x00\x00\x00\x00\x00'
p4004
tp4005
bsg221
g54
(g55
(I0
tp4006
g57
tp4007
Rp4008
(I1
(I2
tp4009
g64
I00
S'\x00\x00\x00\x00\x00\x00\x00\x00\x00\x00\x00\x00\x00\x00\xf0?'
p4010
tp4011
bsg30
Nsg31
Nsg17
Nsg2806
g3854
sg35
I00
sg2821
Nsg36
I00
sg37
(dp4012
sg2817
Nsg39
I00
sg2866
I00
sg1750
Nsg2822
Nsg2800
F1.0
sg2850
g2851
sg2801
Nsg1767
g3214
sg2823
g0
(g2824
g2
Ntp4013
Rp4014
(dp4015
g2823
g2828
sg2829
Nsg2830
Nsg76
g0
(g280
g2
Ntp4016
Rp4017
(dp4018
g52
I1
sg81
Nsg89
g7
sg69
(dp4019
sbsg2835
I00
sg2836
g2837
sg2838
Nsg2441
g2839
sg2148
g2840
sg2841
g2843
sbsg40
Nsg2802
g2803
sg2852
I01
sg2804
g2805
sg1671
Nsg2874
F0.0
sg1673
I01
sg2853
g54
(g55
(I0
tp4020
g57
tp4021
Rp4022
(I1
(I2
I2
tp4023
g64
I00
S'\x00\x00\x00\x00\x00\x00\x00\x00\x00\x00\x00\x00\x00\x00\x00\x00\x00\x00\x00\x00\x00\x00\xf0?\x00\x00\x00\x00\x00\x00\x00\x00'
p4024
tp4025
bsg2860
g3283
sg1675
g0
(g1676
g1677
((lp4026
(lp4027
tp4028
tp4029
Rp4030
sg34
I0
sg2867
g2868
sg2786
I0
sg2871
Nsg2816
I5
sg1689
I01
sg1690
F1.0
sg2872
S'round'
p4031
sg2814
I00
sg76
g292
sg2818
Nsg2815
Nsg2813
I00
sg1766
Nsg1751
Nsg2876
g3875
sg43
g1096
sg2883
F0.8
sg41
Nsg2841
g0
(g1803
g2
Ntp4032
Rp4033
(dp4034
g1807
I00
sg1808
Nsg1809
g54
(g55
(I0
tp4035
g57
tp4036
Rp4037
(I1
(I2
I2
tp4038
g64
I01
S'\x00\x00\x00\x00\x00\x00\x00\x00\x00\x00\x00\x00\x00\x00\xf0?\x00\x00\x00\x00\x00\x00\x00\x00\x00\x00\x00\x00\x00\x00\x00\x00'
p4039
tp4040
bsg1816
I00
sg1817
F0.1111111111111111
sg1818
I180
sg1819
I00
sbsbsg1690
Nsg40
Nsg3300
g0
(g2779
g2
Ntp4041
Rp4042
(dp4043
g6
g7
sg2783
S'butt'
p4044
sg1785
Nsg26
I01
sg2785
Nsg2786
I0
sg220
Nsg221
Nsg30
Nsg17
Nsg36
I00
sg37
(dp4045
sg39
I00
sg1750
Nsg2800
F1.8
sg2801
Nsg2802
g2803
sg2804
g2805
sg1671
Nsg1673
I01
sg2806
g3890
sg34
I0
sg1689
I01
sg2813
I01
sg2814
I01
sg76
g292
sg2815
Nsg2108
F2.01
sg1767
g1768
sg2816
I5
sg14
g4
sg2817
Nsg16
Nsg42
Nsg23
g24
sg2819
S'round'
p4046
sg29
Nsg31
Nsg35
I00
sg2821
Nsg41
Nsg2822
Nsg2823
g0
(g2824
g2
Ntp4047
Rp4048
(dp4049
g2823
I1
sg2829
Nsg2830
F1.0
sg76
g0
(g77
g2
Ntp4050
Rp4051
(dp4052
g52
I2
sg81
Nsg82
g54
(g55
(I0
tp4053
g57
tp4054
Rp4055
(I1
(I3
I3
tp4056
g64
I00
S'\x00\x00\x00\x00\x00\x00\xf0?\x00\x00\x00\x00\x00\x00\x00\x00\x00\x00\x00\x00\x00\x00\x00\x00\x00\x00\x00\x00\x00\x00\x00\x00\x00\x00\x00\x00\x00\x00\xf0?\x00\x00\x00\x00\x00\x00\x00\x00\x00\x00\x00\x00\x00\x00\x00\x00\x00\x00\x00\x00\x00\x00\x00\x00\x00\x00\x00\x00\x00\x00\xf0?'
p4057
tp4058
bsg89
g7
sg69
(dp4059
sbsg2835
I00
sg2836
g2837
sg2838
Nsg2441
g2839
sg2148
g2840
sg2841
g3906
sbsg2850
g2851
sg43
Nsg40
Nsg2852
I01
sg2853
Nsg2860
g3914
sg1675
g0
(g1676
g1677
((lp4060
(lp4061
tp4062
tp4063
Rp4064
sg2866
I00
sg2867
g2868
sg2869
S'projecting'
p4065
sg2871
Nsg1690
Nsg2872
S'round'
p4066
sg2874
F5.5
sg15
I01
sg2818
Nsg1766
Nsg1751
Nsg2876
(I0
tp4067
sg2883
F1.75
sg2841
Nsbsg76
Nsg3339
g3923
sg3341
g3924
sg3343
g3283
sg3344
(g3345
I0
tp4068
sg1766
Nsg1767
g1768
sg3347
g0
(g2779
g2
Ntp4069
Rp4070
(dp4071
g6
g7
sg2783
S'butt'
p4072
sg1785
Nsg26
I01
sg2785
Nsg2786
I0
sg220
Nsg221
Nsg30
Nsg17
Nsg36
I00
sg37
(dp4073
sg39
I00
sg1750
Nsg2800
F1.8
sg2801
Nsg2802
g2803
sg2804
g2805
sg1671
Nsg1673
I01
sg2806
g3931
sg34
I0
sg1689
I01
sg2813
I01
sg2814
I01
sg76
g292
sg2815
Nsg2108
F2.01
sg1767
g1768
sg2816
I5
sg14
g4
sg2817
Nsg16
Nsg42
Nsg23
g24
sg2819
S'round'
p4074
sg29
Nsg31
Nsg35
I00
sg2821
Nsg41
Nsg2822
Nsg2823
g0
(g2824
g2
Ntp4075
Rp4076
(dp4077
g2823
I0
sg2829
Nsg2830
F1.0
sg76
g0
(g77
g2
Ntp4078
Rp4079
(dp4080
g52
I2
sg81
Nsg82
g54
(g55
(I0
tp4081
g57
tp4082
Rp4083
(I1
(I3
I3
tp4084
g64
I00
S'\x00\x00\x00\x00\x00\x00\xf0\xbf\x00\x00\x00\x00\x00\x00\x00\x00\x00\x00\x00\x00\x00\x00\x00\x00\x00\x00\x00\x00\x00\x00\x00\x00\x00\x00\x00\x00\x00\x00\xf0?\x00\x00\x00\x00\x00\x00\x00\x00\x00\x00\x00\x00\x00\x00\x00\x00\x00\x00\x00\x00\x00\x00\x00\x00\x00\x00\x00\x00\x00\x00\xf0?'
p4085
tp4086
bsg89
g7
sg69
(dp4087
sbsg2835
I00
sg2836
g2837
sg2838
Nsg2441
g2839
sg2148
g2840
sg2841
g3906
sbsg2850
g2851
sg43
Nsg40
Nsg2852
I01
sg2853
Nsg2860
g3946
sg1675
g0
(g1676
g1677
((lp4088
(lp4089
tp4090
tp4091
Rp4092
sg2866
I00
sg2867
g2868
sg2869
S'projecting'
p4093
sg2871
Nsg1690
Nsg2872
S'round'
p4094
sg2874
F5.5
sg15
I01
sg2818
Nsg1766
Nsg1751
Nsg2876
(I0
tp4095
sg2883
F1.75
sg2841
Nsbsg41
Nsbasg3518
I01
sg1664
g0
(g1665
g2
Ntp4096
Rp4097
(dp4098
g1669
g1670
sbsg1671
Nsg1673
I01
sg3522
I01
sg1675
g0
(g1676
g1677
((lp4099
(lp4100
tp4101
tp4102
Rp4103
sg34
I0
sg3528
Nsg1689
I00
sg1690
Nsg3529
g3761
sg76
Nsg3531
Vleft
p4104
sg1766
Nsg1751
Nsg2816
I15
sg3533
(lp4105
g0
(g3793
g2
Ntp4106
Rp4107
(dp4108
g6
g7
sg2953
F1.6
sg14
g4
sg3191
I01
sg15
I01
sg1689
I00
sg16
Nsg34
I0
sg42
Nsg3192
F7.4
sg3193
g1768
sg3180
I00
sg1744
F4.0
sg23
g24
sg3194
g3195
sg3141
g0
(g1728
g2
Ntp4109
Rp4110
(dp4111
g6
g7
sg15
I01
sg14
g4
sg16
Nsg1732
g0
(g1733
g2
Ntp4112
Rp4113
(dp4114
g1737
(lp4115
Vsans-serif
p4116
asg1740
Nsg1741
g1742
sg1743
g1742
sg1744
F14.399999999999999
sg1745
g1742
sg1746
g1742
sbsg42
Nsg23
g24
sg1747
Nsg26
I01
sg29
Nsg220
I0
sg221
I0
sg30
Nsg31
Nsg17
Nsg35
I00
sg36
I00
sg37
(dp4117
sg1749
Nsg39
I00
sg1750
Nsg43
Nsg1751
Nsg1752
Nsg40
Nsg1671
Nsg1673
I01
sg1753
g3806
sg1755
g2092
sg1756
Nsg1675
g0
(g1676
g1677
((lp4118
(lp4119
tp4120
tp4121
Rp4122
sg34
I0
sg1762
Nsg1689
I01
sg1690
Nsg1763
F1.2
sg76
g297
sg1764
I00
sg1765
I00
sg1766
Nsg1767
g1768
sg1769
g3812
sg41
Nsbsg26
I01
sg29
Nsg3212
I00
sg30
Nsg31
Nsg3213
g3214
sg17
Nsg3215
I00
sg35
I00
sg3216
(dp4123
sg36
I00
sg37
(dp4124
sg3219
(I0
I1
tp4125
sg39
I00
sg3221
I2
sg1750
g1706
sg3222
I01
sg43
g1446
sg1751
Nsg3223
g4110
sg3224
g0
(g1728
g2
Ntp4126
Rp4127
(dp4128
g6
g7
sg15
I01
sg14
g4
sg16
Nsg1732
g0
(g1733
g2
Ntp4129
Rp4130
(dp4131
g1737
(lp4132
Vsans-serif
p4133
asg1740
Nsg1741
g1742
sg1743
g1742
sg1744
F14.399999999999999
sg1745
g1742
sg1746
g1742
sbsg42
Nsg23
g24
sg1747
Nsg26
I01
sg29
Nsg220
I0
sg221
I1
sg30
Nsg31
Nsg17
Nsg35
I00
sg36
I00
sg37
(dp4134
sg1749
Nsg39
I00
sg1750
Nsg43
Nsg1751
Nsg1752
Nsg40
Nsg1671
Nsg1673
I01
sg1753
g3806
sg1755
g2092
sg1756
Nsg1675
g0
(g1676
g1677
((lp4135
(lp4136
tp4137
tp4138
Rp4139
sg34
I0
sg1762
Nsg1689
I01
sg1690
Nsg1763
F1.2
sg76
g315
sg1764
I00
sg1765
I00
sg1766
Nsg1767
g1768
sg1769
g3830
sg41
Nsbsg1671
Nsg3240
I0
sg1673
I01
sg1675
g0
(g1676
g1677
((lp4140
(lp4141
tp4142
tp4143
Rp4144
sg3246
F3.4
sg3247
F0.8
sg3248
F1.0
sg3249
g0
(g2779
g2
Ntp4145
Rp4146
(dp4147
g6
g7
sg15
I01
sg2869
S'projecting'
p4148
sg14
g4
sg2783
S'butt'
p4149
sg1785
Nsg16
Nsg42
Nsg23
g24
sg2819
S'round'
p4150
sg26
I01
sg2785
Nsg29
Nsg220
g54
(g55
(I0
tp4151
g57
tp4152
Rp4153
(I1
(I2
tp4154
g64
I00
S'\x00\x00\x00\x00\x00\x00\x00\x00\x00\x00\x00\x00\x00\x00\x00\x00'
p4155
tp4156
bsg221
g54
(g55
(I0
tp4157
g57
tp4158
Rp4159
(I1
(I2
tp4160
g64
I00
S'\x00\x00\x00\x00\x00\x00\x00\x00\x00\x00\x00\x00\x00\x00\xf0?'
p4161
tp4162
bsg30
Nsg31
Nsg17
Nsg2806
g3854
sg35
I00
sg2821
Nsg36
I00
sg37
(dp4163
sg2817
Nsg39
I00
sg2866
I00
sg1750
Nsg2822
Nsg2800
F1.0
sg2850
g2851
sg2801
Nsg1767
g3214
sg2823
g0
(g2824
g2
Ntp4164
Rp4165
(dp4166
g2823
g2828
sg2829
Nsg2830
Nsg76
g0
(g280
g2
Ntp4167
Rp4168
(dp4169
g52
I1
sg81
Nsg89
g7
sg69
(dp4170
sbsg2835
I00
sg2836
g2837
sg2838
Nsg2441
g2839
sg2148
g2840
sg2841
g2843
sbsg40
Nsg2802
g2803
sg2852
I01
sg2804
g2805
sg1671
Nsg2874
F0.0
sg1673
I01
sg2853
g54
(g55
(I0
tp4171
g57
tp4172
Rp4173
(I1
(I2
I2
tp4174
g64
I00
S'\x00\x00\x00\x00\x00\x00\x00\x00\x00\x00\x00\x00\x00\x00\x00\x00\x00\x00\x00\x00\x00\x00\xf0?\x00\x00\x00\x00\x00\x00\x00\x00'
p4175
tp4176
bsg2860
g3283
sg1675
g0
(g1676
g1677
((lp4177
(lp4178
tp4179
tp4180
Rp4181
sg34
I0
sg2867
g2868
sg2786
I0
sg2871
Nsg2816
I5
sg1689
I01
sg1690
F1.0
sg2872
S'round'
p4182
sg2814
I00
sg76
g292
sg2818
Nsg2815
Nsg2813
I00
sg1766
Nsg1751
Nsg2876
g3875
sg43
g1524
sg2883
F0.8
sg41
Nsg2841
g0
(g1803
g2
Ntp4183
Rp4184
(dp4185
g1807
I00
sg1808
Nsg1809
g54
(g55
(I0
tp4186
g57
tp4187
Rp4188
(I1
(I2
I2
tp4189
g64
I01
S'\x00\x00\x00\x00\x00\x00\x00\x00\x00\x00\x00\x00\x00\x00\xf0?\x00\x00\x00\x00\x00\x00\x00\x00\x00\x00\x00\x00\x00\x00\x00\x00'
p4190
tp4191
bsg1816
I00
sg1817
F0.1111111111111111
sg1818
I180
sg1819
I00
sbsbsg1690
Nsg40
Nsg3300
g0
(g2779
g2
Ntp4192
Rp4193
(dp4194
g6
g7
sg2783
S'butt'
p4195
sg1785
Nsg26
I01
sg2785
Nsg2786
I0
sg220
Nsg221
Nsg30
Nsg17
Nsg36
I00
sg37
(dp4196
sg39
I00
sg1750
Nsg2800
F1.6
sg2801
Nsg2802
g2803
sg2804
g2805
sg1671
Nsg1673
I01
sg2806
g3890
sg34
I0
sg1689
I01
sg2813
I01
sg2814
I01
sg76
g292
sg2815
Nsg2108
I2
sg1767
g1768
sg2816
I5
sg14
g4
sg2817
Nsg16
Nsg42
Nsg23
g24
sg2819
S'round'
p4197
sg29
Nsg31
Nsg35
I00
sg2821
Nsg41
Nsg2822
Nsg2823
g0
(g2824
g2
Ntp4198
Rp4199
(dp4200
g2823
I1
sg2829
Nsg2830
F1.0
sg76
g0
(g77
g2
Ntp4201
Rp4202
(dp4203
g52
I2
sg81
Nsg82
g54
(g55
(I0
tp4204
g57
tp4205
Rp4206
(I1
(I3
I3
tp4207
g64
I00
S'\x00\x00\x00\x00\x00\x00\xf0?\x00\x00\x00\x00\x00\x00\x00\x00\x00\x00\x00\x00\x00\x00\x00\x00\x00\x00\x00\x00\x00\x00\x00\x00\x00\x00\x00\x00\x00\x00\xf0?\x00\x00\x00\x00\x00\x00\x00\x00\x00\x00\x00\x00\x00\x00\x00\x00\x00\x00\x00\x00\x00\x00\x00\x00\x00\x00\x00\x00\x00\x00\xf0?'
p4208
tp4209
bsg89
g7
sg69
(dp4210
sbsg2835
I00
sg2836
g2837
sg2838
Nsg2441
g2839
sg2148
g2840
sg2841
g3906
sbsg2850
g2851
sg43
Nsg40
Nsg2852
I01
sg2853
Nsg2860
g3914
sg1675
g0
(g1676
g1677
((lp4211
(lp4212
tp4213
tp4214
Rp4215
sg2866
I00
sg2867
g2868
sg2869
S'projecting'
p4216
sg2871
Nsg1690
Nsg2872
S'round'
p4217
sg2874
F4.0
sg15
I01
sg2818
Nsg1766
Nsg1751
Nsg2876
(I0
tp4218
sg2883
F1.75
sg2841
Nsbsg76
Nsg3339
g3923
sg3341
g3924
sg3343
g3283
sg3344
(g3345
I0
tp4219
sg1766
Nsg1767
g1768
sg3347
g0
(g2779
g2
Ntp4220
Rp4221
(dp4222
g6
g7
sg2783
S'butt'
p4223
sg1785
Nsg26
I01
sg2785
Nsg2786
I0
sg220
Nsg221
Nsg30
Nsg17
Nsg36
I00
sg37
(dp4224
sg39
I00
sg1750
Nsg2800
F1.6
sg2801
Nsg2802
g2803
sg2804
g2805
sg1671
Nsg1673
I01
sg2806
g3931
sg34
I0
sg1689
I01
sg2813
I01
sg2814
I01
sg76
g292
sg2815
Nsg2108
I2
sg1767
g1768
sg2816
I5
sg14
g4
sg2817
Nsg16
Nsg42
Nsg23
g24
sg2819
S'round'
p4225
sg29
Nsg31
Nsg35
I00
sg2821
Nsg41
Nsg2822
Nsg2823
g0
(g2824
g2
Ntp4226
Rp4227
(dp4228
g2823
I0
sg2829
Nsg2830
F1.0
sg76
g0
(g77
g2
Ntp4229
Rp4230
(dp4231
g52
I2
sg81
Nsg82
g54
(g55
(I0
tp4232
g57
tp4233
Rp4234
(I1
(I3
I3
tp4235
g64
I00
S'\x00\x00\x00\x00\x00\x00\xf0\xbf\x00\x00\x00\x00\x00\x00\x00\x00\x00\x00\x00\x00\x00\x00\x00\x00\x00\x00\x00\x00\x00\x00\x00\x00\x00\x00\x00\x00\x00\x00\xf0?\x00\x00\x00\x00\x00\x00\x00\x00\x00\x00\x00\x00\x00\x00\x00\x00\x00\x00\x00\x00\x00\x00\x00\x00\x00\x00\x00\x00\x00\x00\xf0?'
p4236
tp4237
bsg89
g7
sg69
(dp4238
sbsg2835
I00
sg2836
g2837
sg2838
Nsg2441
g2839
sg2148
g2840
sg2841
g3906
sbsg2850
g2851
sg43
Nsg40
Nsg2852
I01
sg2853
Nsg2860
g3946
sg1675
g0
(g1676
g1677
((lp4239
(lp4240
tp4241
tp4242
Rp4243
sg2866
I00
sg2867
g2868
sg2869
S'projecting'
p4244
sg2871
Nsg1690
Nsg2872
S'round'
p4245
sg2874
F4.0
sg15
I01
sg2818
Nsg1766
Nsg1751
Nsg2876
(I0
tp4246
sg2883
F1.75
sg2841
Nsbsg41
Nsbasg41
Nsg3676
(dp4247
g3177
I01
sg3178
I01
sg3179
I00
sg3181
I00
ssg3678
I01
sbsS'_axisbelow'
p4248
S'line'
p4249
sg15
I01
sg2898
(lp4250
g2781
ag0
(g2779
g2
Ntp4251
Rp4252
(dp4253
g6
V_line1
p4254
sg1717
I3
sg2783
S'butt'
p4255
sg1785
Nsg26
I01
sg2785
Nsg2786
I0
sg220
g54
(g55
(I0
tp4256
g57
tp4257
Rp4258
(I1
(I3
tp4259
g64
I00
S'\x00\x00\x00\x00\x00\x00\x00\x00\x00\x00\x00\x00\x00\x00\xf0?\x00\x00\x00\x00\x00\x00\x00@'
p4260
tp4261
bsg221
g54
(g55
(I0
tp4262
g57
tp4263
Rp4264
(I1
(I3
tp4265
g64
I00
S'\x00\x00\x00\x00\x00\x00\x00\x00\x00\x00\x00\x00\x00\x00\xf0?\x00\x00\x00\x00\x00\x00\x00@'
p4266
tp4267
bsg30
Nsg17
Nsg36
I00
sg37
(dp4268
sg39
I00
sg1750
g1706
sg2800
F1.0
sg2801
(lp4269
F6.4750000000000005
aF2.8000000000000003
asg2802
g2803
sg2804
g2805
sg1671
Nsg1673
I01
sg2806
g54
(g55
(I0
tp4270
g57
tp4271
Rp4272
(I1
(I3
tp4273
g64
I00
S'\x00\x00\x00\x00\x00\x00\x00\x00\x00\x00\x00\x00\x00\x00\xf0?\x00\x00\x00\x00\x00\x00\x00@'
p4274
tp4275
bsg34
I0
sg1689
I01
sg2813
I00
sg2814
I00
sg76
g223
sg2815
(F3.7
F1.6
tp4276
sg1767
S'grey'
p4277
sg2816
I5
sg14
g4
sg2817
Nsg16
Nsg2818
F0.0
sg42
Nsg23
g24
sg2819
S'round'
p4278
sg29
Nsg31
Nsg35
I00
sg2821
Nsg41
Nsg2822
Nsg2823
g0
(g2824
g2
Ntp4279
Rp4280
(dp4281
g2823
g2828
sg2829
Nsg2830
Nsg76
g0
(g280
g2
Ntp4282
Rp4283
(dp4284
g52
I1
sg81
Nsg89
g7
sg69
(dp4285
sbsg2835
I00
sg2836
g2837
sg2838
Nsg2441
g2839
sg2148
g2840
sg2841
g2843
sbsg2850
g2851
sg43
g1602
sg40
Nsg2852
I01
sg2853
g54
(g55
(I0
tp4286
g57
tp4287
Rp4288
(I1
(I3
I2
tp4289
g64
I00
S'\x00\x00\x00\x00\x00\x00\x00\x00\x00\x00\x00\x00\x00\x00\x00\x00\x00\x00\x00\x00\x00\x00\xf0?\x00\x00\x00\x00\x00\x00\xf0?\x00\x00\x00\x00\x00\x00\x00@\x00\x00\x00\x00\x00\x00\x00@'
p4290
tp4291
bsg2860
S'--'
p4292
sg1675
g0
(g1676
g1677
((lp4293
(lp4294
tp4295
tp4296
Rp4297
sg2866
I00
sg2867
g2868
sg2869
S'projecting'
p4298
sg2871
F0.0
sg1690
Nsg2872
S'round'
p4299
sg2874
F6.0
sg15
I01
sg2875
I3
sg1766
Nsg1751
Nsg2876
g54
(g55
(I0
tp4300
g57
tp4301
Rp4302
(I1
(I3
tp4303
g64
I00
S'\x00\x00\x00\x00\x00\x00\x00\x00\x00\x00\x00\x00\x00\x00\xf0?\x00\x00\x00\x00\x00\x00\x00@'
p4304
tp4305
bsg2883
F1.75
sg2841
g0
(g1803
g2
Ntp4306
Rp4307
(dp4308
g1807
I00
sg1808
Nsg1809
g54
(g55
(I0
tp4309
g57
tp4310
Rp4311
(I1
(I3
I2
tp4312
g64
I01
S'\x00\x00\x00\x00\x00\x00\x00\x00\x00\x00\x00\x00\x00\x00\xf0?\x00\x00\x00\x00\x00\x00\x00@\x00\x00\x00\x00\x00\x00\x00\x00\x00\x00\x00\x00\x00\x00\xf0?\x00\x00\x00\x00\x00\x00\x00@'
p4313
tp4314
bsg1816
I00
sg1817
F0.1111111111111111
sg1818
I1
sg1819
I00
sbsbasg2875
I1
sS'spines'
p4315
ccollections
OrderedDict
p4316
((lp4317
(lp4318
Vleft
p4319
ag0
(cmatplotlib.spines
Spine
p4320
g2
Ntp4321
Rp4322
(dp4323
g6
g7
sg3123
I00
sg2954
I01
sg14
g4
sS'_bounds'
p4324
Nsg15
I01
sg16
Nsg42
Nsg23
g24
sg1766
Nsg26
I01
sg3101
g3721
sg2956
g0
(g280
g2
Ntp4325
Rp4326
(dp4327
g52
I1
sg81
Nsg89
g7
sg69
(dp4328
sbsg2961
(g2129
(g64
S'\x00\x00\x00\x00\x00\x00\x00\x00'
p4329
tp4330
Rp4331
g2129
(g64
S'\x00\x00\x00\x00\x00\x00\x00\x00'
p4332
tp4333
Rp4334
g2129
(g64
S'\x00\x00\x00\x00\x00\x00\x00\x00'
p4335
tp4336
Rp4337
I1
tp4338
sg29
Nsg30
Nsg2085
g1768
sg17
Nsg35
I00
sg36
I00
sg37
(dp4339
sg2990
(NNtp4340
sg3037
(Voutward
p4341
F0.0
tp4342
sg39
I00
sg2117
Nsg1673
I01
sg2883
F1.8
sS'_patch_type'
p4343
Vline
p4344
sg40
Nsg2128
g4338
sg2969
Nsg2852
I01
sg2970
Nsg2143
Vnone
p4345
sg1671
Nsg2914
g2962
sg2148
g2981
sS'_patch_transform'
p4346
g0
(g280
g2
Ntp4347
Rp4348
(dp4349
g52
I1
sg81
Nsg89
g7
sg69
(dp4350
sbsg2860
g2982
sg1675
g0
(g1676
g1677
((lp4351
(lp4352
tp4353
tp4354
Rp4355
sg34
I0
sS'_spine_transform'
p4356
(Videntity
p4357
g0
(g280
g2
Ntp4358
Rp4359
(dp4360
g52
I1
sg81
Nsg89
g7
sg69
(dp4361
sbtp4362
sg1689
I01
sg1690
NsS'spine_type'
p4363
g4319
sg76
g292
sg43
Nsg2108
F2.5
sg2441
Vprojecting
p4364
sg1751
Nsg31
Nsg1750
g1706
sg41
Nsg2841
g0
(g1803
g2
Ntp4365
Rp4366
(dp4367
g1807
I00
sg1808
Nsg1809
g54
(g55
(I0
tp4368
g57
tp4369
Rp4370
(I1
(I2
I2
tp4371
g64
I00
S'\x00\x00\x00\x00\x00\x00\x00\x00\x00\x00\x00\x00\x00\x00*@\x00\x00\x00\x00\x00\x00\x00\x00\x00\x00\x00\x00\x00\x00*@'
p4372
tp4373
bsg1816
I00
sg1817
F0.1111111111111111
sg1818
I1
sg1819
I00
sbsbaa(lp4374
Vright
p4375
ag0
(g4320
g2
Ntp4376
Rp4377
(dp4378
g6
g7
sg3123
I00
sg2954
I01
sg14
g4
sg4324
Nsg15
I01
sg16
Nsg42
Nsg23
g24
sg1766
Nsg26
I01
sg3101
g3721
sg2956
g0
(g280
g2
Ntp4379
Rp4380
(dp4381
g52
I1
sg81
Nsg89
g7
sg69
(dp4382
sbsg2961
g4338
sg29
Nsg30
Nsg2085
g1768
sg17
Nsg35
I00
sg36
I00
sg37
(dp4383
sg2990
(NNtp4384
sg3037
g4342
sg39
I00
sg2117
Nsg1673
I01
sg2883
F1.8
sg4343
g4344
sg40
Nsg2128
g4338
sg2969
Nsg2852
I01
sg2970
Nsg2143
g4345
sg1671
Nsg2914
g2962
sg2148
g2981
sg4346
g0
(g280
g2
Ntp4385
Rp4386
(dp4387
g52
I1
sg81
Nsg89
g7
sg69
(dp4388
sbsg2860
g2982
sg1675
g0
(g1676
g1677
((lp4389
(lp4390
tp4391
tp4392
Rp4393
sg34
I0
sg4356
(g4357
g0
(g280
g2
Ntp4394
Rp4395
(dp4396
g52
I1
sg81
Nsg89
g7
sg69
(dp4397
sbtp4398
sg1689
I01
sg1690
Nsg4363
g4375
sg76
g292
sg43
Nsg2108
F2.5
sg2441
g4364
sg1751
Nsg31
Nsg1750
g1706
sg41
Nsg2841
g0
(g1803
g2
Ntp4399
Rp4400
(dp4401
g1807
I00
sg1808
Nsg1809
g54
(g55
(I0
tp4402
g57
tp4403
Rp4404
(I1
(I2
I2
tp4405
g64
I00
S'\x00\x00\x00\x00\x00\x00\xf0?\x00\x00\x00\x00\x00\x00*@\x00\x00\x00\x00\x00\x00\xf0?\x00\x00\x00\x00\x00\x00*@'
p4406
tp4407
bsg1816
I00
sg1817
F0.1111111111111111
sg1818
I1
sg1819
I00
sbsbaa(lp4408
Vbottom
p4409
ag0
(g4320
g2
Ntp4410
Rp4411
(dp4412
g6
g7
sg3123
I00
sg2954
I01
sg14
g4
sg4324
Nsg15
I01
sg16
Nsg42
Nsg23
g24
sg1766
Nsg26
I01
sg3101
g3069
sg2956
g0
(g280
g2
Ntp4413
Rp4414
(dp4415
g52
I1
sg81
Nsg89
g7
sg69
(dp4416
sbsg2961
g4338
sg29
Nsg30
Nsg2085
g1768
sg17
Nsg35
I00
sg36
I00
sg37
(dp4417
sg2990
(NNtp4418
sg3037
g4342
sg39
I00
sg2117
Nsg1673
I01
sg2883
F1.8
sg4343
g4344
sg40
Nsg2128
g4338
sg2969
Nsg2852
I01
sg2970
Nsg2143
g4345
sg1671
Nsg2914
g2962
sg2148
g2981
sg4346
g0
(g280
g2
Ntp4419
Rp4420
(dp4421
g52
I1
sg81
Nsg89
g7
sg69
(dp4422
sbsg2860
g2982
sg1675
g0
(g1676
g1677
((lp4423
(lp4424
tp4425
tp4426
Rp4427
sg34
I0
sg4356
(g4357
g0
(g280
g2
Ntp4428
Rp4429
(dp4430
g52
I1
sg81
Nsg89
g7
sg69
(dp4431
sbtp4432
sg1689
I01
sg1690
Nsg4363
g4409
sg76
g218
sg43
Nsg2108
F2.5
sg2441
g4364
sg1751
Nsg31
Nsg1750
g1706
sg41
Nsg2841
g0
(g1803
g2
Ntp4433
Rp4434
(dp4435
g1807
I00
sg1808
Nsg1809
g54
(g55
(I0
tp4436
g57
tp4437
Rp4438
(I1
(I2
I2
tp4439
g64
I00
S'\x00\x00\x00\x00\x00\x00*@\x00\x00\x00\x00\x00\x00\x00\x00\x00\x00\x00\x00\x00\x00*@\x00\x00\x00\x00\x00\x00\x00\x00'
p4440
tp4441
bsg1816
I00
sg1817
F0.1111111111111111
sg1818
I1
sg1819
I00
sbsbaa(lp4442
Vtop
p4443
ag0
(g4320
g2
Ntp4444
Rp4445
(dp4446
g6
g7
sg3123
I00
sg2954
I01
sg14
g4
sg4324
Nsg15
I01
sg16
Nsg42
Nsg23
g24
sg1766
Nsg26
I01
sg3101
g3069
sg2956
g0
(g280
g2
Ntp4447
Rp4448
(dp4449
g52
I1
sg81
Nsg89
g7
sg69
(dp4450
sbsg2961
g4338
sg29
Nsg30
Nsg2085
g1768
sg17
Nsg35
I00
sg36
I00
sg37
(dp4451
sg2990
(NNtp4452
sg3037
g4342
sg39
I00
sg2117
Nsg1673
I01
sg2883
F1.8
sg4343
g4344
sg40
Nsg2128
g4338
sg2969
Nsg2852
I01
sg2970
Nsg2143
g4345
sg1671
Nsg2914
g2962
sg2148
g2981
sg4346
g0
(g280
g2
Ntp4453
Rp4454
(dp4455
g52
I1
sg81
Nsg89
g7
sg69
(dp4456
sbsg2860
g2982
sg1675
g0
(g1676
g1677
((lp4457
(lp4458
tp4459
tp4460
Rp4461
sg34
I0
sg4356
(g4357
g0
(g280
g2
Ntp4462
Rp4463
(dp4464
g52
I1
sg81
Nsg89
g7
sg69
(dp4465
sbtp4466
sg1689
I01
sg1690
Nsg4363
g4443
sg76
g218
sg43
Nsg2108
F2.5
sg2441
g4364
sg1751
Nsg31
Nsg1750
g1706
sg41
Nsg2841
g0
(g1803
g2
Ntp4467
Rp4468
(dp4469
g1807
I00
sg1808
Nsg1809
g54
(g55
(I0
tp4470
g57
tp4471
Rp4472
(I1
(I2
I2
tp4473
g64
I00
S'\x00\x00\x00\x00\x00\x00*@\x00\x00\x00\x00\x00\x00\xf0?\x00\x00\x00\x00\x00\x00*@\x00\x00\x00\x00\x00\x00\xf0?'
p4474
tp4475
bsg1816
I00
sg1817
F0.1111111111111111
sg1818
I1
sg1819
I00
sbsbaatp4476
Rp4477
sS'_anchor'
p4478
VC
p4479
sg1766
Nsg1751
Nsbtp4480
tp4481
asS'_ind'
p4482
I1
sS'_pos'
p4483
I0
sbsg76
Nsg2898
(lp4484
sg2948
g0
(g2949
g2
Ntp4485
Rp4486
(dp4487
g6
g7
sg2953
I1
sg2954
I01
sg14
g4
sg15
I01
sg16
Nsg42
Nsg23
g24
sg1766
Nsg2955
I0
sg26
I01
sg2956
g0
(g280
g2
Ntp4488
Rp4489
(dp4490
g52
I1
sg81
Nsg89
g7
sg69
(dp4491
sbsg2961
g2980
sg2963
F0.0
sg29
Nsg30
Nsg2085
g2915
sg17
Nsg2965
I1
sg35
I00
sg36
I00
sg37
(dp4492
sg2967
g0
(g280
g2
Ntp4493
Rp4494
(dp4495
g52
I1
sg81
Nsg89
g7
sg69
(dp4496
sbsg39
I00
sg2117
Nsg1673
I01
sg2883
F0.0
sg43
Nsg2968
I1
sg40
Nsg2128
g2980
sg2969
Nsg2852
I00
sg2970
Nsg2143
g2915
sg1671
Nsg2914
g2980
sg2148
g2981
sg2860
g2982
sg1675
g0
(g1676
g1677
((lp4497
(lp4498
tp4499
tp4500
Rp4501
sg34
I0
sg2988
I1
sg2989
I0
sg1689
I01
sg1690
Nsg76
g139
sg2990
(NNtp4502
sg2441
g2992
sg1751
Nsg31
Nsg1750
Nsg41
NsbsS'subplotpars'
p4503
g0
(cmatplotlib.figure
SubplotParams
p4504
g2
Ntp4505
Rp4506
(dp4507
g3007
F0.95
sg3009
F0.1
sg3010
F0.95
sg3011
F0.2
sS'validate'
p4508
I01
sg3013
F0.2
sg3015
F0.1
sbsg1766
Nsg1751
NsS'_align_ylabel_grp'
p4509
g0
(g1657
g2
Ntp4510
Rp4511
(dp4512
g1661
(dp4513
sbsS'transFigure'
p4514
g139
sS'_dpi'
p4515
F100.0
sg2916
g73
sb.